   1               		.file	"main.c"
   2               	__SREG__ = 0x3f
   3               	__SP_H__ = 0x3e
   4               	__SP_L__ = 0x3d
   5               	__CCP__  = 0x34
   6               	__tmp_reg__ = 0
   7               	__zero_reg__ = 1
   8               		.global __do_copy_data
   9               		.global __do_clear_bss
  17               	.Ltext0:
  18               	.global	WriteToCC1020Register
  20               	WriteToCC1020Register:
  21               	.LFB7:
  22               	.LM1:
  23               	.LVL0:
  24               	/* prologue: function */
  25               	/* frame size = 0 */
  26               	.LM2:
  27 0000 C498      		cbi 56-32,4
  28               	.LM3:
  29 0002 9FB1      		in r25,47-32
  30               	.LVL1:
  31               	.LM4:
  32 0004 880F      		lsl r24
  33               	.LVL2:
  34 0006 8160      		ori r24,lo8(1)
  35 0008 8FB9      		out 47-32,r24
  36               	.L2:
  37               	.LM5:
  38 000a 779B      		sbis 46-32,7
  39 000c 00C0      		rjmp .L2
  40               	.LM6:
  41 000e 8FB1      		in r24,47-32
  42               	.LVL3:
  43               	.LM7:
  44 0010 6FB9      		out 47-32,r22
  45               	.L3:
  46               	.LM8:
  47 0012 779B      		sbis 46-32,7
  48 0014 00C0      		rjmp .L3
  49               	.LM9:
  50 0016 C49A      		sbi 56-32,4
  51               	/* epilogue start */
  52               	.LM10:
  53 0018 0895      		ret
  54               	.LFE7:
  56               	.global	ReadFromCC1020Register
  58               	ReadFromCC1020Register:
  59               	.LFB8:
  60               	.LM11:
  61               	.LVL4:
  62               	/* prologue: function */
  63               	/* frame size = 0 */
  64               	.LM12:
  65 001a C498      		cbi 56-32,4
  66               	.LM13:
  67 001c 9FB1      		in r25,47-32
  68               	.LVL5:
  69               	.LM14:
  70 001e 90E0      		ldi r25,lo8(0)
  71               	.LVL6:
  72 0020 880F      		lsl r24
  73 0022 991F      		rol r25
  74               	.LVL7:
  75 0024 8FB9      		out 47-32,r24
  76               	.L8:
  77               	.LM15:
  78 0026 779B      		sbis 46-32,7
  79 0028 00C0      		rjmp .L8
  80               	.LM16:
  81 002a 8FEF      		ldi r24,lo8(-1)
  82               	.LVL8:
  83 002c 8FB9      		out 47-32,r24
  84               	.L9:
  85               	.LM17:
  86 002e 779B      		sbis 46-32,7
  87 0030 00C0      		rjmp .L9
  88               	.LM18:
  89 0032 8FB1      		in r24,47-32
  90               	.LVL9:
  91               	.LM19:
  92 0034 C49A      		sbi 56-32,4
  93               	.LVL10:
  94               	/* epilogue start */
  95               	.LM20:
  96 0036 0895      		ret
  97               	.LFE8:
  99               	.global	ResetCC1020
 101               	ResetCC1020:
 102               	.LFB10:
 103               	.LM21:
 104               	/* prologue: function */
 105               	/* frame size = 0 */
 106               	.LBB173:
 107               	.LBB174:
 108               	.LM22:
 109 0038 C498      		cbi 56-32,4
 110               	.LM23:
 111 003a 8FB1      		in r24,47-32
 112               	.LVL11:
 113               	.LM24:
 114 003c 81E0      		ldi r24,lo8(1)
 115               	.LVL12:
 116 003e 8FB9      		out 47-32,r24
 117               	.L14:
 118               	.LM25:
 119 0040 779B      		sbis 46-32,7
 120 0042 00C0      		rjmp .L14
 121               	.LM26:
 122 0044 8FB1      		in r24,47-32
 123               	.LVL13:
 124               	.LM27:
 125 0046 8EE0      		ldi r24,lo8(14)
 126               	.LVL14:
 127 0048 8FB9      		out 47-32,r24
 128               	.L15:
 129               	.LM28:
 130 004a 779B      		sbis 46-32,7
 131 004c 00C0      		rjmp .L15
 132               	.LM29:
 133 004e C49A      		sbi 56-32,4
 134               	.LBE174:
 135               	.LBE173:
 136               	.LBB175:
 137               	.LBB176:
 138               	.LM30:
 139 0050 C498      		cbi 56-32,4
 140               	.LM31:
 141 0052 8FB1      		in r24,47-32
 142               	.LVL15:
 143               	.LM32:
 144 0054 81E0      		ldi r24,lo8(1)
 145               	.LVL16:
 146 0056 8FB9      		out 47-32,r24
 147               	.L16:
 148               	.LM33:
 149 0058 779B      		sbis 46-32,7
 150 005a 00C0      		rjmp .L16
 151               	.LM34:
 152 005c 8FB1      		in r24,47-32
 153               	.LVL17:
 154               	.LM35:
 155 005e 8FE1      		ldi r24,lo8(31)
 156               	.LVL18:
 157 0060 8FB9      		out 47-32,r24
 158               	.L17:
 159               	.LM36:
 160 0062 779B      		sbis 46-32,7
 161 0064 00C0      		rjmp .L17
 162               	.LM37:
 163 0066 C49A      		sbi 56-32,4
 164               	/* epilogue start */
 165               	.LBE176:
 166               	.LBE175:
 167               	.LM38:
 168 0068 0895      		ret
 169               	.LFE10:
 171               	.global	SetupCC1020Allregisters
 173               	SetupCC1020Allregisters:
 174               	.LFB11:
 175               	.LM39:
 176               	/* prologue: function */
 177               	/* frame size = 0 */
 178               	.LM40:
 179 006a 21E0      		ldi r18,lo8(1)
 180 006c 30E0      		ldi r19,hi8(1)
 181               	.LVL19:
 182               	.L26:
 183               	.LM41:
 184 006e F901      		movw r30,r18
 185               	.LVL20:
 186 0070 E050      		subi r30,lo8(-(DefaultConfig433-1))
 187 0072 F040      		sbci r31,hi8(-(DefaultConfig433-1))
 188 0074 E081      		ld r30,Z
 189               	.LVL21:
 190               	.LBB177:
 191               	.LBB178:
 192               	.LM42:
 193 0076 C498      		cbi 56-32,4
 194               	.LM43:
 195 0078 8FB1      		in r24,47-32
 196               	.LVL22:
 197               	.LM44:
 198 007a C901      		movw r24,r18
 199               	.LVL23:
 200 007c 880F      		lsl r24
 201 007e 991F      		rol r25
 202 0080 8160      		ori r24,lo8(1)
 203 0082 8FB9      		out 47-32,r24
 204               	.L24:
 205               	.LM45:
 206 0084 779B      		sbis 46-32,7
 207 0086 00C0      		rjmp .L24
 208               	.LM46:
 209 0088 8FB1      		in r24,47-32
 210               	.LVL24:
 211               	.LM47:
 212 008a EFB9      		out 47-32,r30
 213               	.L25:
 214               	.LM48:
 215 008c 779B      		sbis 46-32,7
 216 008e 00C0      		rjmp .L25
 217               	.LM49:
 218 0090 C49A      		sbi 56-32,4
 219 0092 2F5F      		subi r18,lo8(-(1))
 220 0094 3F4F      		sbci r19,hi8(-(1))
 221               	.LBE178:
 222               	.LBE177:
 223               	.LM50:
 224 0096 2132      		cpi r18,33
 225 0098 3105      		cpc r19,__zero_reg__
 226 009a 01F4      		brne .L26
 227               	/* epilogue start */
 228               	.LM51:
 229 009c 0895      		ret
 230               	.LFE11:
 232               	.global	WakeUpCC1020ToTX
 234               	WakeUpCC1020ToTX:
 235               	.LFB12:
 236               	.LM52:
 237               	.LVL25:
 238               	/* prologue: function */
 239               	/* frame size = 0 */
 240 009e 982F      		mov r25,r24
 241               	.LBB179:
 242               	.LBB180:
 243               	.LM53:
 244 00a0 C498      		cbi 56-32,4
 245               	.LM54:
 246 00a2 8FB1      		in r24,47-32
 247               	.LVL26:
 248               	.LM55:
 249 00a4 81E0      		ldi r24,lo8(1)
 250               	.LVL27:
 251 00a6 8FB9      		out 47-32,r24
 252               	.L32:
 253               	.LM56:
 254 00a8 779B      		sbis 46-32,7
 255 00aa 00C0      		rjmp .L32
 256               	.LM57:
 257 00ac 8FB1      		in r24,47-32
 258               	.LVL28:
 259               	.LM58:
 260 00ae 8BED      		ldi r24,lo8(-37)
 261               	.LVL29:
 262 00b0 8FB9      		out 47-32,r24
 263               	.L33:
 264               	.LM59:
 265 00b2 779B      		sbis 46-32,7
 266 00b4 00C0      		rjmp .L33
 267               	.LM60:
 268 00b6 C49A      		sbi 56-32,4
 269               	.LBE180:
 270               	.LBE179:
 271               	.LBB181:
 272               	.LBB182:
 273               	.LM61:
 274 00b8 C498      		cbi 56-32,4
 275               	.LM62:
 276 00ba 8FB1      		in r24,47-32
 277               	.LVL30:
 278               	.LM63:
 279 00bc 8FE2      		ldi r24,lo8(47)
 280               	.LVL31:
 281 00be 8FB9      		out 47-32,r24
 282               	.L34:
 283               	.LM64:
 284 00c0 779B      		sbis 46-32,7
 285 00c2 00C0      		rjmp .L34
 286               	.LM65:
 287 00c4 8FB1      		in r24,47-32
 288               	.LVL32:
 289               	.LM66:
 290 00c6 9FB9      		out 47-32,r25
 291               	.L35:
 292               	.LM67:
 293 00c8 779B      		sbis 46-32,7
 294 00ca 00C0      		rjmp .L35
 295               	.LM68:
 296 00cc C49A      		sbi 56-32,4
 297               	.LBE182:
 298               	.LBE181:
 299               	.LBB183:
 300               	.LBB184:
 301               	.LBB185:
 302               	.LBB186:
 303               	.LM69:
 304 00ce 80E7      		ldi r24,lo8(6000)
 305 00d0 97E1      		ldi r25,hi8(6000)
 306               	.LVL33:
 307               	/* #APP */
 308               	 ;  105 "/usr/lib/gcc/avr/4.3.4/../../../avr/include/util/delay_basic.h" 1
 309 00d2 0197      		1: sbiw r24,1
 310 00d4 01F4      		brne 1b
 311               	 ;  0 "" 2
 312               	/* #NOAPP */
 313               	.LBE186:
 314               	.LBE185:
 315               	.LBE184:
 316               	.LBE183:
 317               	.LBB187:
 318               	.LBB188:
 319               	.LM70:
 320 00d6 C498      		cbi 56-32,4
 321               	.LM71:
 322 00d8 8FB1      		in r24,47-32
 323               	.LVL34:
 324               	.LM72:
 325 00da 81E0      		ldi r24,lo8(1)
 326               	.LVL35:
 327 00dc 8FB9      		out 47-32,r24
 328               	.L36:
 329               	.LM73:
 330 00de 779B      		sbis 46-32,7
 331 00e0 00C0      		rjmp .L36
 332               	.LM74:
 333 00e2 8FB1      		in r24,47-32
 334               	.LVL36:
 335               	.LM75:
 336 00e4 89ED      		ldi r24,lo8(-39)
 337               	.LVL37:
 338 00e6 8FB9      		out 47-32,r24
 339               	.L37:
 340               	.LM76:
 341 00e8 779B      		sbis 46-32,7
 342 00ea 00C0      		rjmp .L37
 343               	.LM77:
 344 00ec C49A      		sbi 56-32,4
 345               	.LBE188:
 346               	.LBE187:
 347               	.LBB189:
 348               	.LBB190:
 349               	.LM78:
 350 00ee C498      		cbi 56-32,4
 351               	.LM79:
 352 00f0 8FB1      		in r24,47-32
 353               	.LVL38:
 354               	.LM80:
 355 00f2 81E0      		ldi r24,lo8(1)
 356               	.LVL39:
 357 00f4 8FB9      		out 47-32,r24
 358               	.L38:
 359               	.LM81:
 360 00f6 779B      		sbis 46-32,7
 361 00f8 00C0      		rjmp .L38
 362               	.LM82:
 363 00fa 8FB1      		in r24,47-32
 364               	.LVL40:
 365               	.LM83:
 366 00fc 81ED      		ldi r24,lo8(-47)
 367               	.LVL41:
 368 00fe 8FB9      		out 47-32,r24
 369               	.L39:
 370               	.LM84:
 371 0100 779B      		sbis 46-32,7
 372 0102 00C0      		rjmp .L39
 373               	.LM85:
 374 0104 C49A      		sbi 56-32,4
 375               	/* epilogue start */
 376               	.LBE190:
 377               	.LBE189:
 378               	.LM86:
 379 0106 0895      		ret
 380               	.LFE12:
 382               	.global	WakeUpCC1020ToRX
 384               	WakeUpCC1020ToRX:
 385               	.LFB13:
 386               	.LM87:
 387               	.LVL42:
 388               	/* prologue: function */
 389               	/* frame size = 0 */
 390 0108 982F      		mov r25,r24
 391               	.LBB191:
 392               	.LBB192:
 393               	.LM88:
 394 010a C498      		cbi 56-32,4
 395               	.LM89:
 396 010c 8FB1      		in r24,47-32
 397               	.LVL43:
 398               	.LM90:
 399 010e 81E0      		ldi r24,lo8(1)
 400               	.LVL44:
 401 0110 8FB9      		out 47-32,r24
 402               	.L50:
 403               	.LM91:
 404 0112 779B      		sbis 46-32,7
 405 0114 00C0      		rjmp .L50
 406               	.LM92:
 407 0116 8FB1      		in r24,47-32
 408               	.LVL45:
 409               	.LM93:
 410 0118 8BE1      		ldi r24,lo8(27)
 411               	.LVL46:
 412 011a 8FB9      		out 47-32,r24
 413               	.L51:
 414               	.LM94:
 415 011c 779B      		sbis 46-32,7
 416 011e 00C0      		rjmp .L51
 417               	.LM95:
 418 0120 C49A      		sbi 56-32,4
 419               	.LBE192:
 420               	.LBE191:
 421               	.LBB193:
 422               	.LBB194:
 423               	.LM96:
 424 0122 C498      		cbi 56-32,4
 425               	.LM97:
 426 0124 8FB1      		in r24,47-32
 427               	.LVL47:
 428               	.LM98:
 429 0126 8FE2      		ldi r24,lo8(47)
 430               	.LVL48:
 431 0128 8FB9      		out 47-32,r24
 432               	.L52:
 433               	.LM99:
 434 012a 779B      		sbis 46-32,7
 435 012c 00C0      		rjmp .L52
 436               	.LM100:
 437 012e 8FB1      		in r24,47-32
 438               	.LVL49:
 439               	.LM101:
 440 0130 9FB9      		out 47-32,r25
 441               	.L53:
 442               	.LM102:
 443 0132 779B      		sbis 46-32,7
 444 0134 00C0      		rjmp .L53
 445               	.LM103:
 446 0136 C49A      		sbi 56-32,4
 447               	.LBE194:
 448               	.LBE193:
 449               	.LBB195:
 450               	.LBB196:
 451               	.LBB197:
 452               	.LBB198:
 453               	.LM104:
 454 0138 80E7      		ldi r24,lo8(6000)
 455 013a 97E1      		ldi r25,hi8(6000)
 456               	.LVL50:
 457               	/* #APP */
 458               	 ;  105 "/usr/lib/gcc/avr/4.3.4/../../../avr/include/util/delay_basic.h" 1
 459 013c 0197      		1: sbiw r24,1
 460 013e 01F4      		brne 1b
 461               	 ;  0 "" 2
 462               	/* #NOAPP */
 463               	.LBE198:
 464               	.LBE197:
 465               	.LBE196:
 466               	.LBE195:
 467               	.LBB199:
 468               	.LBB200:
 469               	.LM105:
 470 0140 C498      		cbi 56-32,4
 471               	.LM106:
 472 0142 8FB1      		in r24,47-32
 473               	.LVL51:
 474               	.LM107:
 475 0144 81E0      		ldi r24,lo8(1)
 476               	.LVL52:
 477 0146 8FB9      		out 47-32,r24
 478               	.L54:
 479               	.LM108:
 480 0148 779B      		sbis 46-32,7
 481 014a 00C0      		rjmp .L54
 482               	.LM109:
 483 014c 8FB1      		in r24,47-32
 484               	.LVL53:
 485               	.LM110:
 486 014e 89E1      		ldi r24,lo8(25)
 487               	.LVL54:
 488 0150 8FB9      		out 47-32,r24
 489               	.L55:
 490               	.LM111:
 491 0152 779B      		sbis 46-32,7
 492 0154 00C0      		rjmp .L55
 493               	.LM112:
 494 0156 C49A      		sbi 56-32,4
 495               	.LBE200:
 496               	.LBE199:
 497               	.LBB201:
 498               	.LBB202:
 499               	.LM113:
 500 0158 C498      		cbi 56-32,4
 501               	.LM114:
 502 015a 8FB1      		in r24,47-32
 503               	.LVL55:
 504               	.LM115:
 505 015c 81E0      		ldi r24,lo8(1)
 506               	.LVL56:
 507 015e 8FB9      		out 47-32,r24
 508               	.L56:
 509               	.LM116:
 510 0160 779B      		sbis 46-32,7
 511 0162 00C0      		rjmp .L56
 512               	.LM117:
 513 0164 8FB1      		in r24,47-32
 514               	.LVL57:
 515               	.LM118:
 516 0166 81E1      		ldi r24,lo8(17)
 517               	.LVL58:
 518 0168 8FB9      		out 47-32,r24
 519               	.L57:
 520               	.LM119:
 521 016a 779B      		sbis 46-32,7
 522 016c 00C0      		rjmp .L57
 523               	.LM120:
 524 016e C49A      		sbi 56-32,4
 525               	/* epilogue start */
 526               	.LBE202:
 527               	.LBE201:
 528               	.LM121:
 529 0170 0895      		ret
 530               	.LFE13:
 532               	.global	CalibrateCC1020
 534               	CalibrateCC1020:
 535               	.LFB14:
 536               	.LM122:
 537               	.LVL59:
 538 0172 DF93      		push r29
 539 0174 CF93      		push r28
 540 0176 00D0      		rcall .
 541 0178 00D0      		rcall .
 542 017a CDB7      		in r28,__SP_L__
 543 017c DEB7      		in r29,__SP_H__
 544               	/* prologue: function */
 545               	/* frame size = 4 */
 546 017e E82F      		mov r30,r24
 547               	.LBB203:
 548               	.LBB204:
 549               	.LM123:
 550 0180 C498      		cbi 56-32,4
 551               	.LM124:
 552 0182 8FB1      		in r24,47-32
 553               	.LVL60:
 554               	.LM125:
 555 0184 89E3      		ldi r24,lo8(57)
 556               	.LVL61:
 557 0186 8FB9      		out 47-32,r24
 558               	.L68:
 559               	.LM126:
 560 0188 779B      		sbis 46-32,7
 561 018a 00C0      		rjmp .L68
 562               	.LM127:
 563 018c 8FB1      		in r24,47-32
 564               	.LVL62:
 565               	.LM128:
 566 018e 1FB8      		out 47-32,__zero_reg__
 567               	.L69:
 568               	.LM129:
 569 0190 779B      		sbis 46-32,7
 570 0192 00C0      		rjmp .L69
 571               	.LM130:
 572 0194 C49A      		sbi 56-32,4
 573               	.LBE204:
 574               	.LBE203:
 575               	.LM131:
 576 0196 84E0      		ldi r24,lo8(4)
 577 0198 90E0      		ldi r25,hi8(4)
 578               	.LVL63:
 579 019a 9C83      		std Y+4,r25
 580 019c 8B83      		std Y+3,r24
 581               	.LVL64:
 582               	.LBB205:
 583               	.LBB206:
 584               	.LM132:
 585 019e A7E3      		ldi r26,lo8(55)
 586               	.LM133:
 587 01a0 F4EB      		ldi r31,lo8(-76)
 588               	.LBE206:
 589               	.LBE205:
 590               	.LM134:
 591 01a2 6EE1      		ldi r22,lo8(30)
 592 01a4 70E0      		ldi r23,hi8(30)
 593               	.LBB208:
 594               	.LBB209:
 595               	.LM135:
 596 01a6 30E8      		ldi r19,lo8(-128)
 597               	.LM136:
 598 01a8 2FEF      		ldi r18,lo8(-1)
 599               	.LBE209:
 600               	.LBE208:
 601               	.LBB211:
 602               	.LBB212:
 603               	.LBB213:
 604               	.LBB214:
 605               	.LM137:
 606 01aa 40ED      		ldi r20,lo8(2000)
 607 01ac 57E0      		ldi r21,hi8(2000)
 608 01ae 00C0      		rjmp .L70
 609               	.LVL65:
 610               	.L86:
 611               	.LBE214:
 612               	.LBE213:
 613               	.LBE212:
 614               	.LBE211:
 615               	.LBB218:
 616               	.LBB207:
 617               	.LM138:
 618 01b0 C498      		cbi 56-32,4
 619               	.LM139:
 620 01b2 8FB1      		in r24,47-32
 621               	.LVL66:
 622               	.LM140:
 623 01b4 AFB9      		out 47-32,r26
 624               	.L71:
 625               	.LM141:
 626 01b6 779B      		sbis 46-32,7
 627 01b8 00C0      		rjmp .L71
 628               	.LM142:
 629 01ba 8FB1      		in r24,47-32
 630               	.LVL67:
 631               	.LM143:
 632 01bc FFB9      		out 47-32,r31
 633               	.L72:
 634               	.LM144:
 635 01be 779B      		sbis 46-32,7
 636 01c0 00C0      		rjmp .L72
 637               	.LM145:
 638 01c2 C49A      		sbi 56-32,4
 639               	.LBE207:
 640               	.LBE218:
 641               	.LM146:
 642 01c4 7A83      		std Y+2,r23
 643 01c6 6983      		std Y+1,r22
 644               	.LVL68:
 645 01c8 00C0      		rjmp .L73
 646               	.LVL69:
 647               	.L77:
 648               	.LBB219:
 649               	.LBB217:
 650               	.LBB216:
 651               	.LBB215:
 652               	.LM147:
 653 01ca CA01      		movw r24,r20
 654               	.LVL70:
 655               	/* #APP */
 656               	 ;  105 "/usr/lib/gcc/avr/4.3.4/../../../avr/include/util/delay_basic.h" 1
 657 01cc 0197      		1: sbiw r24,1
 658 01ce 01F4      		brne 1b
 659               	 ;  0 "" 2
 660               	/* #NOAPP */
 661               	.LBE215:
 662               	.LBE216:
 663               	.LBE217:
 664               	.LBE219:
 665               	.LM148:
 666 01d0 8981      		ldd r24,Y+1
 667 01d2 9A81      		ldd r25,Y+2
 668               	.LVL71:
 669 01d4 0197      		sbiw r24,1
 670 01d6 9A83      		std Y+2,r25
 671 01d8 8983      		std Y+1,r24
 672               	.LVL72:
 673               	.L73:
 674               	.LBB220:
 675               	.LBB210:
 676               	.LM149:
 677 01da C498      		cbi 56-32,4
 678               	.LM150:
 679 01dc 8FB1      		in r24,47-32
 680               	.LVL73:
 681               	.LM151:
 682 01de 3FB9      		out 47-32,r19
 683               	.L74:
 684               	.LM152:
 685 01e0 779B      		sbis 46-32,7
 686 01e2 00C0      		rjmp .L74
 687               	.LM153:
 688 01e4 2FB9      		out 47-32,r18
 689               	.L75:
 690               	.LM154:
 691 01e6 779B      		sbis 46-32,7
 692 01e8 00C0      		rjmp .L75
 693               	.LM155:
 694 01ea 8FB1      		in r24,47-32
 695               	.LVL74:
 696               	.LM156:
 697 01ec C49A      		sbi 56-32,4
 698               	.LBE210:
 699               	.LBE220:
 700               	.LM157:
 701 01ee 87FD      		sbrc r24,7
 702 01f0 00C0      		rjmp .L76
 703 01f2 8981      		ldd r24,Y+1
 704 01f4 9A81      		ldd r25,Y+2
 705               	.LVL75:
 706 01f6 1816      		cp __zero_reg__,r24
 707 01f8 1906      		cpc __zero_reg__,r25
 708 01fa 04F0      		brlt .L77
 709               	.LVL76:
 710               	.L76:
 711               	.LM158:
 712 01fc 7A83      		std Y+2,r23
 713 01fe 6983      		std Y+1,r22
 714               	.LVL77:
 715 0200 00C0      		rjmp .L78
 716               	.LVL78:
 717               	.L82:
 718               	.LBB221:
 719               	.LBB222:
 720               	.LBB223:
 721               	.LBB224:
 722               	.LM159:
 723 0202 CA01      		movw r24,r20
 724               	.LVL79:
 725               	/* #APP */
 726               	 ;  105 "/usr/lib/gcc/avr/4.3.4/../../../avr/include/util/delay_basic.h" 1
 727 0204 0197      		1: sbiw r24,1
 728 0206 01F4      		brne 1b
 729               	 ;  0 "" 2
 730               	/* #NOAPP */
 731               	.LBE224:
 732               	.LBE223:
 733               	.LBE222:
 734               	.LBE221:
 735               	.LM160:
 736 0208 8981      		ldd r24,Y+1
 737 020a 9A81      		ldd r25,Y+2
 738               	.LVL80:
 739 020c 0197      		sbiw r24,1
 740 020e 9A83      		std Y+2,r25
 741 0210 8983      		std Y+1,r24
 742               	.LVL81:
 743               	.L78:
 744               	.LBB225:
 745               	.LBB226:
 746               	.LM161:
 747 0212 C498      		cbi 56-32,4
 748               	.LM162:
 749 0214 8FB1      		in r24,47-32
 750               	.LVL82:
 751               	.LM163:
 752 0216 3FB9      		out 47-32,r19
 753               	.L79:
 754               	.LM164:
 755 0218 779B      		sbis 46-32,7
 756 021a 00C0      		rjmp .L79
 757               	.LM165:
 758 021c 2FB9      		out 47-32,r18
 759               	.L80:
 760               	.LM166:
 761 021e 779B      		sbis 46-32,7
 762 0220 00C0      		rjmp .L80
 763               	.LM167:
 764 0222 8FB1      		in r24,47-32
 765               	.LVL83:
 766               	.LM168:
 767 0224 C49A      		sbi 56-32,4
 768               	.LBE226:
 769               	.LBE225:
 770               	.LM169:
 771 0226 84FD      		sbrc r24,4
 772 0228 00C0      		rjmp .L81
 773 022a 8981      		ldd r24,Y+1
 774 022c 9A81      		ldd r25,Y+2
 775               	.LVL84:
 776 022e 1816      		cp __zero_reg__,r24
 777 0230 1906      		cpc __zero_reg__,r25
 778 0232 04F0      		brlt .L82
 779               	.LVL85:
 780               	.L81:
 781               	.LBB227:
 782               	.LBB228:
 783               	.LM170:
 784 0234 C498      		cbi 56-32,4
 785               	.LM171:
 786 0236 8FB1      		in r24,47-32
 787               	.LVL86:
 788               	.LM172:
 789 0238 3FB9      		out 47-32,r19
 790               	.L83:
 791               	.LM173:
 792 023a 779B      		sbis 46-32,7
 793 023c 00C0      		rjmp .L83
 794               	.LM174:
 795 023e 2FB9      		out 47-32,r18
 796               	.L84:
 797               	.LM175:
 798 0240 779B      		sbis 46-32,7
 799 0242 00C0      		rjmp .L84
 800               	.LM176:
 801 0244 8FB1      		in r24,47-32
 802               	.LVL87:
 803               	.LM177:
 804 0246 C49A      		sbi 56-32,4
 805               	.LBE228:
 806               	.LBE227:
 807               	.LM178:
 808 0248 84FD      		sbrc r24,4
 809 024a 00C0      		rjmp .L85
 810               	.LM179:
 811 024c 8B81      		ldd r24,Y+3
 812 024e 9C81      		ldd r25,Y+4
 813               	.LVL88:
 814 0250 0197      		sbiw r24,1
 815 0252 9C83      		std Y+4,r25
 816 0254 8B83      		std Y+3,r24
 817               	.LVL89:
 818               	.L70:
 819 0256 8B81      		ldd r24,Y+3
 820 0258 9C81      		ldd r25,Y+4
 821 025a 1816      		cp __zero_reg__,r24
 822 025c 1906      		cpc __zero_reg__,r25
 823 025e 04F4      		brge .+2
 824 0260 00C0      		rjmp .L86
 825               	.LVL90:
 826               	.L85:
 827               	.LBB229:
 828               	.LBB230:
 829               	.LM180:
 830 0262 C498      		cbi 56-32,4
 831               	.LM181:
 832 0264 8FB1      		in r24,47-32
 833               	.LVL91:
 834               	.LM182:
 835 0266 89E3      		ldi r24,lo8(57)
 836               	.LVL92:
 837 0268 8FB9      		out 47-32,r24
 838               	.L87:
 839               	.LM183:
 840 026a 779B      		sbis 46-32,7
 841 026c 00C0      		rjmp .L87
 842               	.LM184:
 843 026e 8FB1      		in r24,47-32
 844               	.LVL93:
 845               	.LM185:
 846 0270 EFB9      		out 47-32,r30
 847               	.L88:
 848               	.LM186:
 849 0272 779B      		sbis 46-32,7
 850 0274 00C0      		rjmp .L88
 851               	.LM187:
 852 0276 C49A      		sbi 56-32,4
 853               	.LBE230:
 854               	.LBE229:
 855               	.LBB231:
 856               	.LBB232:
 857               	.LM188:
 858 0278 C498      		cbi 56-32,4
 859               	.LM189:
 860 027a 8FB1      		in r24,47-32
 861               	.LVL94:
 862               	.LM190:
 863 027c 80E8      		ldi r24,lo8(-128)
 864               	.LVL95:
 865 027e 8FB9      		out 47-32,r24
 866               	.L89:
 867               	.LM191:
 868 0280 779B      		sbis 46-32,7
 869 0282 00C0      		rjmp .L89
 870               	.LM192:
 871 0284 8FEF      		ldi r24,lo8(-1)
 872 0286 8FB9      		out 47-32,r24
 873               	.L90:
 874               	.LM193:
 875 0288 779B      		sbis 46-32,7
 876 028a 00C0      		rjmp .L90
 877               	.LM194:
 878 028c 2FB1      		in r18,47-32
 879               	.LVL96:
 880               	.LM195:
 881 028e C49A      		sbi 56-32,4
 882 0290 30E0      		ldi r19,lo8(0)
 883 0292 54E0      		ldi r21,4
 884 0294 3695      	1:	lsr r19
 885 0296 2795      		ror r18
 886 0298 5A95      		dec r21
 887 029a 01F4      		brne 1b
 888               	.LVL97:
 889 029c 2170      		andi r18,lo8(1)
 890 029e 3070      		andi r19,hi8(1)
 891               	.LBE232:
 892               	.LBE231:
 893               	.LM196:
 894 02a0 C901      		movw r24,r18
 895               	/* epilogue start */
 896 02a2 0F90      		pop __tmp_reg__
 897 02a4 0F90      		pop __tmp_reg__
 898 02a6 0F90      		pop __tmp_reg__
 899 02a8 0F90      		pop __tmp_reg__
 900 02aa CF91      		pop r28
 901 02ac DF91      		pop r29
 902 02ae 0895      		ret
 903               	.LFE14:
 905               	.global	SetupCC1020TX
 907               	SetupCC1020TX:
 908               	.LFB15:
 909               	.LM197:
 910               	.LVL98:
 911 02b0 1F93      		push r17
 912 02b2 DF93      		push r29
 913 02b4 CF93      		push r28
 914 02b6 00D0      		rcall .
 915 02b8 CDB7      		in r28,__SP_L__
 916 02ba DEB7      		in r29,__SP_H__
 917               	/* prologue: function */
 918               	/* frame size = 2 */
 919 02bc 982F      		mov r25,r24
 920 02be 162F      		mov r17,r22
 921               	.LBB233:
 922               	.LBB234:
 923               	.LM198:
 924 02c0 C498      		cbi 56-32,4
 925               	.LM199:
 926 02c2 8FB1      		in r24,47-32
 927               	.LVL99:
 928               	.LM200:
 929 02c4 89E3      		ldi r24,lo8(57)
 930               	.LVL100:
 931 02c6 8FB9      		out 47-32,r24
 932               	.LVL101:
 933               	.L107:
 934               	.LM201:
 935 02c8 779B      		sbis 46-32,7
 936 02ca 00C0      		rjmp .L107
 937               	.LM202:
 938 02cc 8FB1      		in r24,47-32
 939               	.LVL102:
 940               	.LM203:
 941 02ce 1FB8      		out 47-32,__zero_reg__
 942               	.L108:
 943               	.LM204:
 944 02d0 779B      		sbis 46-32,7
 945 02d2 00C0      		rjmp .L108
 946               	.LM205:
 947 02d4 C49A      		sbi 56-32,4
 948               	.LBE234:
 949               	.LBE233:
 950               	.LBB235:
 951               	.LBB236:
 952               	.LM206:
 953 02d6 C498      		cbi 56-32,4
 954               	.LM207:
 955 02d8 8FB1      		in r24,47-32
 956               	.LVL103:
 957               	.LM208:
 958 02da 8FE2      		ldi r24,lo8(47)
 959               	.LVL104:
 960 02dc 8FB9      		out 47-32,r24
 961               	.L109:
 962               	.LM209:
 963 02de 779B      		sbis 46-32,7
 964 02e0 00C0      		rjmp .L109
 965               	.LM210:
 966 02e2 8FB1      		in r24,47-32
 967               	.LVL105:
 968               	.LM211:
 969 02e4 9FB9      		out 47-32,r25
 970               	.L110:
 971               	.LM212:
 972 02e6 779B      		sbis 46-32,7
 973 02e8 00C0      		rjmp .L110
 974               	.LM213:
 975 02ea C49A      		sbi 56-32,4
 976               	.LBE236:
 977               	.LBE235:
 978               	.LBB237:
 979               	.LBB238:
 980               	.LM214:
 981 02ec C498      		cbi 56-32,4
 982               	.LM215:
 983 02ee 8FB1      		in r24,47-32
 984               	.LVL106:
 985               	.LM216:
 986 02f0 81E0      		ldi r24,lo8(1)
 987               	.LVL107:
 988 02f2 8FB9      		out 47-32,r24
 989               	.L111:
 990               	.LM217:
 991 02f4 779B      		sbis 46-32,7
 992 02f6 00C0      		rjmp .L111
 993               	.LM218:
 994 02f8 8FB1      		in r24,47-32
 995               	.LVL108:
 996               	.LM219:
 997 02fa 81EC      		ldi r24,lo8(-63)
 998               	.LVL109:
 999 02fc 8FB9      		out 47-32,r24
 1000               	.L112:
 1001               	.LM220:
 1002 02fe 779B      		sbis 46-32,7
 1003 0300 00C0      		rjmp .L112
 1004               	.LM221:
 1005 0302 C49A      		sbi 56-32,4
 1006               	.LBE238:
 1007               	.LBE237:
 1008               	.LM222:
 1009 0304 8EE1      		ldi r24,lo8(30)
 1010 0306 90E0      		ldi r25,hi8(30)
 1011 0308 9A83      		std Y+2,r25
 1012 030a 8983      		std Y+1,r24
 1013               	.LVL110:
 1014               	.LBB239:
 1015               	.LBB240:
 1016               	.LM223:
 1017 030c 50E8      		ldi r21,lo8(-128)
 1018               	.LM224:
 1019 030e 4FEF      		ldi r20,lo8(-1)
 1020               	.LBE240:
 1021               	.LBE239:
 1022               	.LBB242:
 1023               	.LBB243:
 1024               	.LBB244:
 1025               	.LBB245:
 1026               	.LM225:
 1027 0310 20ED      		ldi r18,lo8(2000)
 1028 0312 37E0      		ldi r19,hi8(2000)
 1029 0314 00C0      		rjmp .L113
 1030               	.L117:
 1031 0316 C901      		movw r24,r18
 1032               	.LVL111:
 1033               	/* #APP */
 1034               	 ;  105 "/usr/lib/gcc/avr/4.3.4/../../../avr/include/util/delay_basic.h" 1
 1035 0318 0197      		1: sbiw r24,1
 1036 031a 01F4      		brne 1b
 1037               	 ;  0 "" 2
 1038               	/* #NOAPP */
 1039               	.LBE245:
 1040               	.LBE244:
 1041               	.LBE243:
 1042               	.LBE242:
 1043               	.LM226:
 1044 031c 8981      		ldd r24,Y+1
 1045 031e 9A81      		ldd r25,Y+2
 1046               	.LVL112:
 1047 0320 0197      		sbiw r24,1
 1048 0322 9A83      		std Y+2,r25
 1049 0324 8983      		std Y+1,r24
 1050               	.LVL113:
 1051               	.L113:
 1052               	.LBB246:
 1053               	.LBB241:
 1054               	.LM227:
 1055 0326 C498      		cbi 56-32,4
 1056               	.LM228:
 1057 0328 8FB1      		in r24,47-32
 1058               	.LVL114:
 1059               	.LM229:
 1060 032a 5FB9      		out 47-32,r21
 1061               	.L114:
 1062               	.LM230:
 1063 032c 779B      		sbis 46-32,7
 1064 032e 00C0      		rjmp .L114
 1065               	.LM231:
 1066 0330 4FB9      		out 47-32,r20
 1067               	.L115:
 1068               	.LM232:
 1069 0332 779B      		sbis 46-32,7
 1070 0334 00C0      		rjmp .L115
 1071               	.LM233:
 1072 0336 8FB1      		in r24,47-32
 1073               	.LVL115:
 1074               	.LM234:
 1075 0338 C49A      		sbi 56-32,4
 1076               	.LBE241:
 1077               	.LBE246:
 1078               	.LM235:
 1079 033a 84FD      		sbrc r24,4
 1080 033c 00C0      		rjmp .L116
 1081 033e 8981      		ldd r24,Y+1
 1082 0340 9A81      		ldd r25,Y+2
 1083               	.LVL116:
 1084 0342 1816      		cp __zero_reg__,r24
 1085 0344 1906      		cpc __zero_reg__,r25
 1086 0346 04F0      		brlt .L117
 1087               	.LVL117:
 1088               	.L116:
 1089               	.LBB247:
 1090               	.LBB248:
 1091               	.LM236:
 1092 0348 C498      		cbi 56-32,4
 1093               	.LM237:
 1094 034a 8FB1      		in r24,47-32
 1095               	.LVL118:
 1096               	.LM238:
 1097 034c 80E8      		ldi r24,lo8(-128)
 1098               	.LVL119:
 1099 034e 8FB9      		out 47-32,r24
 1100               	.L118:
 1101               	.LM239:
 1102 0350 779B      		sbis 46-32,7
 1103 0352 00C0      		rjmp .L118
 1104               	.LM240:
 1105 0354 8FEF      		ldi r24,lo8(-1)
 1106 0356 8FB9      		out 47-32,r24
 1107               	.L119:
 1108               	.LM241:
 1109 0358 779B      		sbis 46-32,7
 1110 035a 00C0      		rjmp .L119
 1111               	.LM242:
 1112 035c 8FB1      		in r24,47-32
 1113               	.LVL120:
 1114               	.LM243:
 1115 035e C49A      		sbi 56-32,4
 1116               	.LBE248:
 1117               	.LBE247:
 1118               	.LM244:
 1119 0360 84FD      		sbrc r24,4
 1120 0362 00C0      		rjmp .L150
 1121               	.L120:
 1122               	.LM245:
 1123 0364 812F      		mov r24,r17
 1124               	.LVL121:
 1125 0366 0E94 0000 		call CalibrateCC1020
 1126               	.LVL122:
 1127 036a 892B      		or r24,r25
 1128 036c 01F0      		breq .L122
 1129               	.LVL123:
 1130               	.L150:
 1131               	.LM246:
 1132 036e D99A      		sbi 59-32,1
 1133 0370 21E0      		ldi r18,lo8(1)
 1134 0372 30E0      		ldi r19,hi8(1)
 1135               	.LVL124:
 1136 0374 00C0      		rjmp .L121
 1137               	.LVL125:
 1138               	.L122:
 1139               	.LM247:
 1140 0376 D998      		cbi 59-32,1
 1141 0378 20E0      		ldi r18,lo8(0)
 1142 037a 30E0      		ldi r19,hi8(0)
 1143               	.LVL126:
 1144               	.L121:
 1145               	.LBB249:
 1146               	.LBB250:
 1147               	.LM248:
 1148 037c C498      		cbi 56-32,4
 1149               	.LM249:
 1150 037e 8FB1      		in r24,47-32
 1151               	.LVL127:
 1152               	.LM250:
 1153 0380 89E3      		ldi r24,lo8(57)
 1154               	.LVL128:
 1155 0382 8FB9      		out 47-32,r24
 1156               	.L123:
 1157               	.LM251:
 1158 0384 779B      		sbis 46-32,7
 1159 0386 00C0      		rjmp .L123
 1160               	.LM252:
 1161 0388 8FB1      		in r24,47-32
 1162               	.LVL129:
 1163               	.LM253:
 1164 038a 1FB9      		out 47-32,r17
 1165               	.L124:
 1166               	.LM254:
 1167 038c 779B      		sbis 46-32,7
 1168 038e 00C0      		rjmp .L124
 1169               	.LM255:
 1170 0390 C49A      		sbi 56-32,4
 1171               	.LBE250:
 1172               	.LBE249:
 1173               	.LBB251:
 1174               	.LBB252:
 1175               	.LM256:
 1176 0392 C498      		cbi 56-32,4
 1177               	.LM257:
 1178 0394 8FB1      		in r24,47-32
 1179               	.LVL130:
 1180               	.LM258:
 1181 0396 82E0      		ldi r24,lo8(2)
 1182               	.LVL131:
 1183 0398 8FB9      		out 47-32,r24
 1184               	.L125:
 1185               	.LM259:
 1186 039a 779B      		sbis 46-32,7
 1187 039c 00C0      		rjmp .L125
 1188               	.LM260:
 1189 039e 8FEF      		ldi r24,lo8(-1)
 1190 03a0 8FB9      		out 47-32,r24
 1191               	.L126:
 1192               	.LM261:
 1193 03a2 779B      		sbis 46-32,7
 1194 03a4 00C0      		rjmp .L126
 1195               	.LM262:
 1196 03a6 9FB1      		in r25,47-32
 1197               	.LVL132:
 1198               	.LM263:
 1199 03a8 C49A      		sbi 56-32,4
 1200               	.LBE252:
 1201               	.LBE251:
 1202               	.LBB253:
 1203               	.LBB254:
 1204               	.LM264:
 1205 03aa C498      		cbi 56-32,4
 1206               	.LM265:
 1207 03ac 8FB1      		in r24,47-32
 1208               	.LVL133:
 1209               	.LM266:
 1210 03ae 83E0      		ldi r24,lo8(3)
 1211               	.LVL134:
 1212 03b0 8FB9      		out 47-32,r24
 1213               	.L127:
 1214               	.LM267:
 1215 03b2 779B      		sbis 46-32,7
 1216 03b4 00C0      		rjmp .L127
 1217               	.LM268:
 1218 03b6 8FB1      		in r24,47-32
 1219               	.LVL135:
 1220               	.LBE254:
 1221               	.LBE253:
 1222               	.LM269:
 1223 03b8 9F7E      		andi r25,lo8(-17)
 1224               	.LBB256:
 1225               	.LBB255:
 1226               	.LM270:
 1227 03ba 9FB9      		out 47-32,r25
 1228               	.L128:
 1229               	.LM271:
 1230 03bc 779B      		sbis 46-32,7
 1231 03be 00C0      		rjmp .L128
 1232               	.LM272:
 1233 03c0 C49A      		sbi 56-32,4
 1234               	.LBE255:
 1235               	.LBE256:
 1236               	.LBB257:
 1237               	.LBB258:
 1238               	.LM273:
 1239 03c2 C498      		cbi 56-32,4
 1240               	.LM274:
 1241 03c4 8FB1      		in r24,47-32
 1242               	.LVL136:
 1243               	.LM275:
 1244 03c6 8BE2      		ldi r24,lo8(43)
 1245               	.LVL137:
 1246 03c8 8FB9      		out 47-32,r24
 1247               	.L129:
 1248               	.LM276:
 1249 03ca 779B      		sbis 46-32,7
 1250 03cc 00C0      		rjmp .L129
 1251               	.LM277:
 1252 03ce 8FB1      		in r24,47-32
 1253               	.LVL138:
 1254               	.LM278:
 1255 03d0 80E2      		ldi r24,lo8(32)
 1256               	.LVL139:
 1257 03d2 8FB9      		out 47-32,r24
 1258               	.L130:
 1259               	.LM279:
 1260 03d4 779B      		sbis 46-32,7
 1261 03d6 00C0      		rjmp .L130
 1262               	.LM280:
 1263 03d8 C49A      		sbi 56-32,4
 1264               	.LBE258:
 1265               	.LBE257:
 1266               	.LM281:
 1267 03da 822F      		mov r24,r18
 1268               	/* epilogue start */
 1269 03dc 0F90      		pop __tmp_reg__
 1270 03de 0F90      		pop __tmp_reg__
 1271 03e0 CF91      		pop r28
 1272 03e2 DF91      		pop r29
 1273 03e4 1F91      		pop r17
 1274               	.LVL140:
 1275 03e6 0895      		ret
 1276               	.LFE15:
 1278               	.global	SetupCC1020RX
 1280               	SetupCC1020RX:
 1281               	.LFB16:
 1282               	.LM282:
 1283               	.LVL141:
 1284 03e8 DF93      		push r29
 1285 03ea CF93      		push r28
 1286 03ec 00D0      		rcall .
 1287 03ee CDB7      		in r28,__SP_L__
 1288 03f0 DEB7      		in r29,__SP_H__
 1289               	/* prologue: function */
 1290               	/* frame size = 2 */
 1291               	.LBB259:
 1292               	.LBB260:
 1293               	.LM283:
 1294 03f2 C498      		cbi 56-32,4
 1295               	.LM284:
 1296 03f4 8FB1      		in r24,47-32
 1297               	.LVL142:
 1298               	.LM285:
 1299 03f6 82E0      		ldi r24,lo8(2)
 1300               	.LVL143:
 1301 03f8 8FB9      		out 47-32,r24
 1302               	.L152:
 1303               	.LM286:
 1304 03fa 779B      		sbis 46-32,7
 1305 03fc 00C0      		rjmp .L152
 1306               	.LM287:
 1307 03fe 8FEF      		ldi r24,lo8(-1)
 1308 0400 8FB9      		out 47-32,r24
 1309               	.L153:
 1310               	.LM288:
 1311 0402 779B      		sbis 46-32,7
 1312 0404 00C0      		rjmp .L153
 1313               	.LM289:
 1314 0406 9FB1      		in r25,47-32
 1315               	.LVL144:
 1316               	.LM290:
 1317 0408 C49A      		sbi 56-32,4
 1318               	.LBE260:
 1319               	.LBE259:
 1320               	.LBB261:
 1321               	.LBB262:
 1322               	.LM291:
 1323 040a C498      		cbi 56-32,4
 1324               	.LM292:
 1325 040c 8FB1      		in r24,47-32
 1326               	.LVL145:
 1327               	.LM293:
 1328 040e 83E0      		ldi r24,lo8(3)
 1329               	.LVL146:
 1330 0410 8FB9      		out 47-32,r24
 1331               	.L154:
 1332               	.LM294:
 1333 0412 779B      		sbis 46-32,7
 1334 0414 00C0      		rjmp .L154
 1335               	.LM295:
 1336 0416 8FB1      		in r24,47-32
 1337               	.LVL147:
 1338               	.LBE262:
 1339               	.LBE261:
 1340               	.LM296:
 1341 0418 9061      		ori r25,lo8(16)
 1342               	.LBB264:
 1343               	.LBB263:
 1344               	.LM297:
 1345 041a 9FB9      		out 47-32,r25
 1346               	.L155:
 1347               	.LM298:
 1348 041c 779B      		sbis 46-32,7
 1349 041e 00C0      		rjmp .L155
 1350               	.LM299:
 1351 0420 C49A      		sbi 56-32,4
 1352               	.LBE263:
 1353               	.LBE264:
 1354               	.LBB265:
 1355               	.LBB266:
 1356               	.LM300:
 1357 0422 C498      		cbi 56-32,4
 1358               	.LM301:
 1359 0424 8FB1      		in r24,47-32
 1360               	.LVL148:
 1361               	.LM302:
 1362 0426 81E0      		ldi r24,lo8(1)
 1363               	.LVL149:
 1364 0428 8FB9      		out 47-32,r24
 1365               	.L156:
 1366               	.LM303:
 1367 042a 779B      		sbis 46-32,7
 1368 042c 00C0      		rjmp .L156
 1369               	.LM304:
 1370 042e 8FB1      		in r24,47-32
 1371               	.LVL150:
 1372               	.LM305:
 1373 0430 81E1      		ldi r24,lo8(17)
 1374               	.LVL151:
 1375 0432 8FB9      		out 47-32,r24
 1376               	.L157:
 1377               	.LM306:
 1378 0434 779B      		sbis 46-32,7
 1379 0436 00C0      		rjmp .L157
 1380               	.LM307:
 1381 0438 C49A      		sbi 56-32,4
 1382               	.LBE266:
 1383               	.LBE265:
 1384               	.LBB267:
 1385               	.LBB268:
 1386               	.LM308:
 1387 043a C498      		cbi 56-32,4
 1388               	.LM309:
 1389 043c 8FB1      		in r24,47-32
 1390               	.LVL152:
 1391               	.LM310:
 1392 043e 8FE2      		ldi r24,lo8(47)
 1393               	.LVL153:
 1394 0440 8FB9      		out 47-32,r24
 1395               	.L158:
 1396               	.LM311:
 1397 0442 779B      		sbis 46-32,7
 1398 0444 00C0      		rjmp .L158
 1399               	.LM312:
 1400 0446 8FB1      		in r24,47-32
 1401               	.LVL154:
 1402               	.LM313:
 1403 0448 87E4      		ldi r24,lo8(71)
 1404               	.LVL155:
 1405 044a 8FB9      		out 47-32,r24
 1406               	.L159:
 1407               	.LM314:
 1408 044c 779B      		sbis 46-32,7
 1409 044e 00C0      		rjmp .L159
 1410               	.LM315:
 1411 0450 C49A      		sbi 56-32,4
 1412               	.LBE268:
 1413               	.LBE267:
 1414               	.LM316:
 1415 0452 8EE1      		ldi r24,lo8(30)
 1416 0454 90E0      		ldi r25,hi8(30)
 1417 0456 9A83      		std Y+2,r25
 1418 0458 8983      		std Y+1,r24
 1419               	.LVL156:
 1420               	.LBB269:
 1421               	.LBB270:
 1422               	.LM317:
 1423 045a 50E8      		ldi r21,lo8(-128)
 1424               	.LM318:
 1425 045c 4FEF      		ldi r20,lo8(-1)
 1426               	.LBE270:
 1427               	.LBE269:
 1428               	.LBB272:
 1429               	.LBB273:
 1430               	.LBB274:
 1431               	.LBB275:
 1432               	.LM319:
 1433 045e 20ED      		ldi r18,lo8(2000)
 1434 0460 37E0      		ldi r19,hi8(2000)
 1435 0462 00C0      		rjmp .L160
 1436               	.L164:
 1437 0464 C901      		movw r24,r18
 1438               	.LVL157:
 1439               	/* #APP */
 1440               	 ;  105 "/usr/lib/gcc/avr/4.3.4/../../../avr/include/util/delay_basic.h" 1
 1441 0466 0197      		1: sbiw r24,1
 1442 0468 01F4      		brne 1b
 1443               	 ;  0 "" 2
 1444               	/* #NOAPP */
 1445               	.LBE275:
 1446               	.LBE274:
 1447               	.LBE273:
 1448               	.LBE272:
 1449               	.LM320:
 1450 046a 8981      		ldd r24,Y+1
 1451 046c 9A81      		ldd r25,Y+2
 1452               	.LVL158:
 1453 046e 0197      		sbiw r24,1
 1454 0470 9A83      		std Y+2,r25
 1455 0472 8983      		std Y+1,r24
 1456               	.LVL159:
 1457               	.L160:
 1458               	.LBB276:
 1459               	.LBB271:
 1460               	.LM321:
 1461 0474 C498      		cbi 56-32,4
 1462               	.LM322:
 1463 0476 8FB1      		in r24,47-32
 1464               	.LVL160:
 1465               	.LM323:
 1466 0478 5FB9      		out 47-32,r21
 1467               	.L161:
 1468               	.LM324:
 1469 047a 779B      		sbis 46-32,7
 1470 047c 00C0      		rjmp .L161
 1471               	.LM325:
 1472 047e 4FB9      		out 47-32,r20
 1473               	.L162:
 1474               	.LM326:
 1475 0480 779B      		sbis 46-32,7
 1476 0482 00C0      		rjmp .L162
 1477               	.LM327:
 1478 0484 8FB1      		in r24,47-32
 1479               	.LVL161:
 1480               	.LM328:
 1481 0486 C49A      		sbi 56-32,4
 1482               	.LBE271:
 1483               	.LBE276:
 1484               	.LM329:
 1485 0488 84FD      		sbrc r24,4
 1486 048a 00C0      		rjmp .L163
 1487 048c 8981      		ldd r24,Y+1
 1488 048e 9A81      		ldd r25,Y+2
 1489               	.LVL162:
 1490 0490 1816      		cp __zero_reg__,r24
 1491 0492 1906      		cpc __zero_reg__,r25
 1492 0494 04F0      		brlt .L164
 1493               	.LVL163:
 1494               	.L163:
 1495               	.LBB277:
 1496               	.LBB278:
 1497               	.LM330:
 1498 0496 C498      		cbi 56-32,4
 1499               	.LM331:
 1500 0498 8FB1      		in r24,47-32
 1501               	.LVL164:
 1502               	.LM332:
 1503 049a 80E8      		ldi r24,lo8(-128)
 1504               	.LVL165:
 1505 049c 8FB9      		out 47-32,r24
 1506               	.L165:
 1507               	.LM333:
 1508 049e 779B      		sbis 46-32,7
 1509 04a0 00C0      		rjmp .L165
 1510               	.LM334:
 1511 04a2 8FEF      		ldi r24,lo8(-1)
 1512 04a4 8FB9      		out 47-32,r24
 1513               	.L166:
 1514               	.LM335:
 1515 04a6 779B      		sbis 46-32,7
 1516 04a8 00C0      		rjmp .L166
 1517               	.LM336:
 1518 04aa 8FB1      		in r24,47-32
 1519               	.LVL166:
 1520               	.LM337:
 1521 04ac C49A      		sbi 56-32,4
 1522               	.LBE278:
 1523               	.LBE277:
 1524               	.LM338:
 1525 04ae 84FD      		sbrc r24,4
 1526 04b0 00C0      		rjmp .L191
 1527               	.L167:
 1528               	.LM339:
 1529 04b2 862F      		mov r24,r22
 1530               	.LVL167:
 1531 04b4 0E94 0000 		call CalibrateCC1020
 1532               	.LVL168:
 1533 04b8 892B      		or r24,r25
 1534 04ba 01F0      		breq .L169
 1535               	.LVL169:
 1536               	.L191:
 1537               	.LM340:
 1538 04bc D99A      		sbi 59-32,1
 1539 04be 91E0      		ldi r25,lo8(1)
 1540               	.LVL170:
 1541 04c0 00C0      		rjmp .L168
 1542               	.LVL171:
 1543               	.L169:
 1544               	.LM341:
 1545 04c2 D998      		cbi 59-32,1
 1546 04c4 90E0      		ldi r25,lo8(0)
 1547               	.LVL172:
 1548               	.L168:
 1549               	.LBB279:
 1550               	.LBB280:
 1551               	.LM342:
 1552 04c6 C498      		cbi 56-32,4
 1553               	.LM343:
 1554 04c8 8FB1      		in r24,47-32
 1555               	.LVL173:
 1556               	.LM344:
 1557 04ca 81E0      		ldi r24,lo8(1)
 1558               	.LVL174:
 1559 04cc 8FB9      		out 47-32,r24
 1560               	.L170:
 1561               	.LM345:
 1562 04ce 779B      		sbis 46-32,7
 1563 04d0 00C0      		rjmp .L170
 1564               	.LM346:
 1565 04d2 8FB1      		in r24,47-32
 1566               	.LVL175:
 1567               	.LM347:
 1568 04d4 81E0      		ldi r24,lo8(1)
 1569               	.LVL176:
 1570 04d6 8FB9      		out 47-32,r24
 1571               	.L171:
 1572               	.LM348:
 1573 04d8 779B      		sbis 46-32,7
 1574 04da 00C0      		rjmp .L171
 1575               	.LM349:
 1576 04dc C49A      		sbi 56-32,4
 1577               	.LBE280:
 1578               	.LBE279:
 1579               	.LBB281:
 1580               	.LBB282:
 1581               	.LM350:
 1582 04de C498      		cbi 56-32,4
 1583               	.LM351:
 1584 04e0 8FB1      		in r24,47-32
 1585               	.LVL177:
 1586               	.LM352:
 1587 04e2 8BE2      		ldi r24,lo8(43)
 1588               	.LVL178:
 1589 04e4 8FB9      		out 47-32,r24
 1590               	.L172:
 1591               	.LM353:
 1592 04e6 779B      		sbis 46-32,7
 1593 04e8 00C0      		rjmp .L172
 1594               	.LM354:
 1595 04ea 8FB1      		in r24,47-32
 1596               	.LVL179:
 1597               	.LM355:
 1598 04ec 80E4      		ldi r24,lo8(64)
 1599               	.LVL180:
 1600 04ee 8FB9      		out 47-32,r24
 1601               	.L173:
 1602               	.LM356:
 1603 04f0 779B      		sbis 46-32,7
 1604 04f2 00C0      		rjmp .L173
 1605               	.LM357:
 1606 04f4 C49A      		sbi 56-32,4
 1607               	.LBE282:
 1608               	.LBE281:
 1609               	.LM358:
 1610 04f6 892F      		mov r24,r25
 1611               	/* epilogue start */
 1612 04f8 0F90      		pop __tmp_reg__
 1613 04fa 0F90      		pop __tmp_reg__
 1614 04fc CF91      		pop r28
 1615 04fe DF91      		pop r29
 1616 0500 0895      		ret
 1617               	.LFE16:
 1619               	.global	Transmitpacket
 1621               	Transmitpacket:
 1622               	.LFB17:
 1623               	.LM359:
 1624               	/* prologue: function */
 1625               	/* frame size = 0 */
 1626               	.LM360:
 1627 0502 8091 0000 		lds r24,no_bytes_tosend
 1628 0506 9091 0000 		lds r25,(no_bytes_tosend)+1
 1629 050a 41E0      		ldi r20,lo8(1)
 1630 050c 50E0      		ldi r21,hi8(1)
 1631               	.LVL181:
 1632 050e 60E0      		ldi r22,lo8(0)
 1633 0510 70E0      		ldi r23,hi8(0)
 1634               	.LVL182:
 1635 0512 00C0      		rjmp .L193
 1636               	.LVL183:
 1637               	.L199:
 1638               	.LM361:
 1639 0514 FA01      		movw r30,r20
 1640               	.LVL184:
 1641 0516 E050      		subi r30,lo8(-(TXBUFFER-1))
 1642 0518 F040      		sbci r31,hi8(-(TXBUFFER-1))
 1643 051a E081      		ld r30,Z
 1644               	.LVL185:
 1645               	.LM362:
 1646 051c DA9A      		sbi 59-32,2
 1647 051e 21E0      		ldi r18,lo8(1)
 1648 0520 30E0      		ldi r19,hi8(1)
 1649               	.L211:
 1650               	.LM363:
 1651 0522 B29B      		sbis 54-32,2
 1652 0524 00C0      		rjmp .L211
 1653               	.L206:
 1654               	.LM364:
 1655 0526 B299      		sbic 54-32,2
 1656 0528 00C0      		rjmp .L206
 1657               	.LM365:
 1658 052a E7FF      		sbrs r30,7
 1659 052c 00C0      		rjmp .L196
 1660 052e C19A      		sbi 56-32,1
 1661 0530 00C0      		rjmp .L197
 1662               	.L196:
 1663               	.LM366:
 1664 0532 C198      		cbi 56-32,1
 1665               	.L197:
 1666               	.LM367:
 1667 0534 2F5F      		subi r18,lo8(-(1))
 1668 0536 3F4F      		sbci r19,hi8(-(1))
 1669 0538 2930      		cpi r18,9
 1670 053a 3105      		cpc r19,__zero_reg__
 1671 053c 01F0      		breq .L198
 1672               	.LM368:
 1673 053e EE0F      		lsl r30
 1674 0540 00C0      		rjmp .L211
 1675               	.L198:
 1676 0542 685F      		subi r22,lo8(-(8))
 1677 0544 7F4F      		sbci r23,hi8(-(8))
 1678               	.LM369:
 1679 0546 DA98      		cbi 59-32,2
 1680               	.LM370:
 1681 0548 4F5F      		subi r20,lo8(-(1))
 1682 054a 5F4F      		sbci r21,hi8(-(1))
 1683               	.L193:
 1684 054c 8417      		cp r24,r20
 1685 054e 9507      		cpc r25,r21
 1686 0550 04F4      		brge .L199
 1687 0552 21E0      		ldi r18,lo8(1)
 1688 0554 30E0      		ldi r19,hi8(1)
 1689               	.LVL186:
 1690               	.L212:
 1691               	.LM371:
 1692 0556 B29B      		sbis 54-32,2
 1693 0558 00C0      		rjmp .L212
 1694               	.L205:
 1695               	.LM372:
 1696 055a B299      		sbic 54-32,2
 1697 055c 00C0      		rjmp .L205
 1698               	.LM373:
 1699 055e C19A      		sbi 56-32,1
 1700               	.LM374:
 1701 0560 2F5F      		subi r18,lo8(-(1))
 1702 0562 3F4F      		sbci r19,hi8(-(1))
 1703 0564 2330      		cpi r18,3
 1704 0566 3105      		cpc r19,__zero_reg__
 1705 0568 01F4      		brne .L212
 1706               	.LM375:
 1707 056a CB01      		movw r24,r22
 1708               	.LVL187:
 1709               	/* epilogue start */
 1710 056c 0895      		ret
 1711               	.LFE17:
 1713               	.global	ReadNumberofBytes
 1715               	ReadNumberofBytes:
 1716               	.LFB19:
 1717               	.LM376:
 1718               	.LVL188:
 1719 056e CF93      		push r28
 1720 0570 DF93      		push r29
 1721               	/* prologue: function */
 1722               	/* frame size = 0 */
 1723 0572 EC01      		movw r28,r24
 1724               	.LM377:
 1725 0574 A091 0000 		lds r26,curr_buffer_index
 1726 0578 B091 0000 		lds r27,(curr_buffer_index)+1
 1727 057c 4091 0000 		lds r20,rxcount
 1728 0580 5091 0000 		lds r21,(rxcount)+1
 1729 0584 80E0      		ldi r24,lo8(0)
 1730               	.LVL189:
 1731 0586 61E0      		ldi r22,lo8(1)
 1732 0588 70E0      		ldi r23,hi8(1)
 1733               	.LVL190:
 1734 058a 00C0      		rjmp .L214
 1735               	.LVL191:
 1736               	.L218:
 1737               	.LM378:
 1738 058c 21E0      		ldi r18,lo8(1)
 1739 058e 30E0      		ldi r19,hi8(1)
 1740               	.L224:
 1741               	.LM379:
 1742 0590 B299      		sbic 54-32,2
 1743 0592 00C0      		rjmp .L224
 1744               	.L221:
 1745               	.LM380:
 1746 0594 B29B      		sbis 54-32,2
 1747 0596 00C0      		rjmp .L221
 1748               	.LM381:
 1749 0598 880F      		lsl r24
 1750               	.LM382:
 1751 059a B199      		sbic 54-32,1
 1752               	.LM383:
 1753 059c 8160      		ori r24,lo8(1)
 1754               	.L217:
 1755               	.LM384:
 1756 059e 2F5F      		subi r18,lo8(-(1))
 1757 05a0 3F4F      		sbci r19,hi8(-(1))
 1758 05a2 2930      		cpi r18,9
 1759 05a4 3105      		cpc r19,__zero_reg__
 1760 05a6 01F4      		brne .L224
 1761               	.LM385:
 1762 05a8 FD01      		movw r30,r26
 1763 05aa E050      		subi r30,lo8(-(RXBUFFER))
 1764 05ac F040      		sbci r31,hi8(-(RXBUFFER))
 1765 05ae 8083      		st Z,r24
 1766               	.LM386:
 1767 05b0 6F5F      		subi r22,lo8(-(1))
 1768 05b2 7F4F      		sbci r23,hi8(-(1))
 1769 05b4 1196      		adiw r26,1
 1770 05b6 485F      		subi r20,lo8(-(8))
 1771 05b8 5F4F      		sbci r21,hi8(-(8))
 1772               	.L214:
 1773 05ba C617      		cp r28,r22
 1774 05bc D707      		cpc r29,r23
 1775 05be 04F4      		brge .L218
 1776 05c0 4093 0000 		sts rxcount,r20
 1777 05c4 5093 0000 		sts rxcount+1,r21
 1778 05c8 B093 0000 		sts (curr_buffer_index)+1,r27
 1779 05cc A093 0000 		sts curr_buffer_index,r26
 1780               	/* epilogue start */
 1781               	.LM387:
 1782 05d0 DF91      		pop r29
 1783 05d2 CF91      		pop r28
 1784               	.LVL192:
 1785 05d4 0895      		ret
 1786               	.LFE19:
 1788               	.global	Receivepacket
 1790               	Receivepacket:
 1791               	.LFB18:
 1792               	.LM388:
 1793               	/* prologue: function */
 1794               	/* frame size = 0 */
 1795               	.LM389:
 1796 05d6 1092 0000 		sts (no_databytes_toread)+1,__zero_reg__
 1797 05da 1092 0000 		sts no_databytes_toread,__zero_reg__
 1798               	.LBB283:
 1799               	.LBB284:
 1800               	.LM390:
 1801 05de C498      		cbi 56-32,4
 1802               	.LM391:
 1803 05e0 8FB1      		in r24,47-32
 1804               	.LVL193:
 1805               	.LM392:
 1806 05e2 84E8      		ldi r24,lo8(-124)
 1807               	.LVL194:
 1808 05e4 8FB9      		out 47-32,r24
 1809               	.L226:
 1810               	.LM393:
 1811 05e6 779B      		sbis 46-32,7
 1812 05e8 00C0      		rjmp .L226
 1813               	.LM394:
 1814 05ea 8FEF      		ldi r24,lo8(-1)
 1815 05ec 8FB9      		out 47-32,r24
 1816               	.L227:
 1817               	.LM395:
 1818 05ee 779B      		sbis 46-32,7
 1819 05f0 00C0      		rjmp .L227
 1820               	.LM396:
 1821 05f2 8FB1      		in r24,47-32
 1822               	.LVL195:
 1823               	.LM397:
 1824 05f4 C49A      		sbi 56-32,4
 1825               	.LBE284:
 1826               	.LBE283:
 1827               	.LM398:
 1828 05f6 8093 0000 		sts RXBUFFER,r24
 1829               	.LBB285:
 1830               	.LBB286:
 1831               	.LM399:
 1832 05fa C498      		cbi 56-32,4
 1833               	.LM400:
 1834 05fc 8FB1      		in r24,47-32
 1835               	.LVL196:
 1836               	.LM401:
 1837 05fe 80E8      		ldi r24,lo8(-128)
 1838               	.LVL197:
 1839 0600 8FB9      		out 47-32,r24
 1840               	.L228:
 1841               	.LM402:
 1842 0602 779B      		sbis 46-32,7
 1843 0604 00C0      		rjmp .L228
 1844               	.LM403:
 1845 0606 8FEF      		ldi r24,lo8(-1)
 1846 0608 8FB9      		out 47-32,r24
 1847               	.L229:
 1848               	.LM404:
 1849 060a 779B      		sbis 46-32,7
 1850 060c 00C0      		rjmp .L229
 1851               	.LM405:
 1852 060e 8FB1      		in r24,47-32
 1853               	.LVL198:
 1854               	.LM406:
 1855 0610 C49A      		sbi 56-32,4
 1856               	.LBE286:
 1857               	.LBE285:
 1858               	.LM407:
 1859 0612 8093 0000 		sts RXBUFFER+1,r24
 1860 0616 81E0      		ldi r24,lo8(1)
 1861               	.LVL199:
 1862 0618 40E0      		ldi r20,lo8(0)
 1863 061a 50E0      		ldi r21,hi8(0)
 1864               	.L270:
 1865               	.LM408:
 1866 061c B299      		sbic 54-32,2
 1867 061e 00C0      		rjmp .L270
 1868               	.L255:
 1869               	.LM409:
 1870 0620 B29B      		sbis 54-32,2
 1871 0622 00C0      		rjmp .L255
 1872               	.LM410:
 1873 0624 B19B      		sbis 54-32,1
 1874 0626 00C0      		rjmp .L254
 1875               	.LM411:
 1876 0628 8823      		tst r24
 1877 062a 01F4      		brne .L273
 1878               	.L233:
 1879               	.LM412:
 1880 062c 4E5F      		subi r20,lo8(-(2))
 1881 062e 5F4F      		sbci r21,hi8(-(2))
 1882 0630 00C0      		rjmp .L234
 1883               	.L254:
 1884               	.LM413:
 1885 0632 B299      		sbic 54-32,2
 1886 0634 00C0      		rjmp .L254
 1887               	.L253:
 1888               	.LM414:
 1889 0636 B29B      		sbis 54-32,2
 1890 0638 00C0      		rjmp .L253
 1891               	.LM415:
 1892 063a B199      		sbic 54-32,1
 1893 063c 00C0      		rjmp .L236
 1894 063e 80E0      		ldi r24,lo8(0)
 1895               	.L273:
 1896 0640 40E0      		ldi r20,lo8(0)
 1897 0642 50E0      		ldi r21,hi8(0)
 1898 0644 00C0      		rjmp .L234
 1899               	.L236:
 1900               	.LM416:
 1901 0646 4E5F      		subi r20,lo8(-(2))
 1902 0648 5F4F      		sbci r21,hi8(-(2))
 1903 064a 81E0      		ldi r24,lo8(1)
 1904               	.L234:
 1905               	.LM417:
 1906 064c 4833      		cpi r20,56
 1907 064e 5105      		cpc r21,__zero_reg__
 1908 0650 01F4      		brne .L270
 1909 0652 88E3      		ldi r24,lo8(56)
 1910               	.LVL200:
 1911 0654 8093 0000 		sts rxcount,r24
 1912 0658 1092 0000 		sts rxcount+1,__zero_reg__
 1913 065c 20E0      		ldi r18,lo8(0)
 1914               	.LVL201:
 1915 065e 81E0      		ldi r24,lo8(1)
 1916 0660 90E0      		ldi r25,hi8(1)
 1917               	.LVL202:
 1918               	.L271:
 1919               	.LBB287:
 1920               	.LM418:
 1921 0662 B299      		sbic 54-32,2
 1922 0664 00C0      		rjmp .L271
 1923               	.L252:
 1924               	.LM419:
 1925 0666 B29B      		sbis 54-32,2
 1926 0668 00C0      		rjmp .L252
 1927               	.LM420:
 1928 066a 220F      		lsl r18
 1929               	.LM421:
 1930 066c B199      		sbic 54-32,1
 1931               	.LM422:
 1932 066e 2160      		ori r18,lo8(1)
 1933               	.L239:
 1934               	.LM423:
 1935 0670 0196      		adiw r24,1
 1936 0672 8930      		cpi r24,9
 1937 0674 9105      		cpc r25,__zero_reg__
 1938 0676 01F4      		brne .L271
 1939 0678 00C0      		rjmp .L272
 1940               	.L251:
 1941               	.LBE287:
 1942               	.LM424:
 1943 067a B299      		sbic 54-32,2
 1944 067c 00C0      		rjmp .L251
 1945               	.L250:
 1946               	.LM425:
 1947 067e B29B      		sbis 54-32,2
 1948 0680 00C0      		rjmp .L250
 1949               	.LM426:
 1950 0682 220F      		lsl r18
 1951               	.LM427:
 1952 0684 B199      		sbic 54-32,1
 1953               	.LM428:
 1954 0686 2160      		ori r18,lo8(1)
 1955               	.L272:
 1956               	.LM429:
 1957 0688 2E37      		cpi r18,lo8(126)
 1958 068a 01F4      		brne .L251
 1959               	.LM430:
 1960 068c 4093 0000 		sts RXBUFFER+2,r20
 1961               	.LM431:
 1962 0690 2093 0000 		sts RXBUFFER+3,r18
 1963               	.LM432:
 1964 0694 84E0      		ldi r24,lo8(4)
 1965 0696 90E0      		ldi r25,hi8(4)
 1966               	.LVL203:
 1967 0698 9093 0000 		sts (curr_buffer_index)+1,r25
 1968 069c 8093 0000 		sts curr_buffer_index,r24
 1969               	.LM433:
 1970 06a0 81E0      		ldi r24,lo8(1)
 1971 06a2 90E0      		ldi r25,hi8(1)
 1972 06a4 0E94 0000 		call ReadNumberofBytes
 1973               	.LVL204:
 1974               	.LM434:
 1975 06a8 2091 0000 		lds r18,curr_buffer_index
 1976 06ac 3091 0000 		lds r19,(curr_buffer_index)+1
 1977               	.LM435:
 1978 06b0 F901      		movw r30,r18
 1979 06b2 E050      		subi r30,lo8(-(RXBUFFER-1))
 1980 06b4 F040      		sbci r31,hi8(-(RXBUFFER-1))
 1981 06b6 8081      		ld r24,Z
 1982 06b8 8093 0000 		sts curr_byte,r24
 1983 06bc 1092 0000 		sts curr_byte+1,__zero_reg__
 1984               	.LM436:
 1985 06c0 8091 0000 		lds r24,RXBUFFER+3
 1986 06c4 8E37      		cpi r24,lo8(126)
 1987 06c6 01F0      		breq .L269
 1988 06c8 20E0      		ldi r18,lo8(0)
 1989 06ca 30E0      		ldi r19,hi8(0)
 1990 06cc 00C0      		rjmp .L244
 1991               	.L245:
 1992               	.LM437:
 1993 06ce 81E0      		ldi r24,lo8(1)
 1994 06d0 90E0      		ldi r25,hi8(1)
 1995 06d2 0E94 0000 		call ReadNumberofBytes
 1996               	.LM438:
 1997 06d6 8091 0000 		lds r24,curr_buffer_index
 1998 06da 9091 0000 		lds r25,(curr_buffer_index)+1
 1999 06de FC01      		movw r30,r24
 2000 06e0 3197      		sbiw r30,1
 2001 06e2 F093 0000 		sts (curr_buffer_index)+1,r31
 2002 06e6 E093 0000 		sts curr_buffer_index,r30
 2003               	.LM439:
 2004 06ea E050      		subi r30,lo8(-(RXBUFFER))
 2005 06ec F040      		sbci r31,hi8(-(RXBUFFER))
 2006 06ee 2081      		ld r18,Z
 2007 06f0 2093 0000 		sts curr_byte,r18
 2008 06f4 1092 0000 		sts curr_byte+1,__zero_reg__
 2009               	.LM440:
 2010 06f8 9093 0000 		sts (curr_buffer_index)+1,r25
 2011 06fc 8093 0000 		sts curr_buffer_index,r24
 2012               	.L269:
 2013               	.LM441:
 2014 0700 8091 0000 		lds r24,curr_byte
 2015 0704 9091 0000 		lds r25,(curr_byte)+1
 2016 0708 8E37      		cpi r24,126
 2017 070a 9105      		cpc r25,__zero_reg__
 2018 070c 01F4      		brne .L245
 2019               	.LM442:
 2020 070e 2091 0000 		lds r18,rxcount
 2021 0712 3091 0000 		lds r19,(rxcount)+1
 2022               	.L244:
 2023               	.LM443:
 2024 0716 C901      		movw r24,r18
 2025               	/* epilogue start */
 2026 0718 0895      		ret
 2027               	.LFE18:
 2029               	.global	ReadRSSIlevelCC1020
 2031               	ReadRSSIlevelCC1020:
 2032               	.LFB20:
 2033               	.LM444:
 2034               	/* prologue: function */
 2035               	/* frame size = 0 */
 2036               	.LBB288:
 2037               	.LBB289:
 2038               	.LM445:
 2039 071a C498      		cbi 56-32,4
 2040               	.LM446:
 2041 071c 8FB1      		in r24,47-32
 2042               	.LVL205:
 2043               	.LM447:
 2044 071e 80E2      		ldi r24,lo8(32)
 2045               	.LVL206:
 2046 0720 8FB9      		out 47-32,r24
 2047               	.L275:
 2048               	.LM448:
 2049 0722 779B      		sbis 46-32,7
 2050 0724 00C0      		rjmp .L275
 2051               	.LM449:
 2052 0726 8FEF      		ldi r24,lo8(-1)
 2053 0728 8FB9      		out 47-32,r24
 2054               	.L276:
 2055               	.LM450:
 2056 072a 779B      		sbis 46-32,7
 2057 072c 00C0      		rjmp .L276
 2058               	.LM451:
 2059 072e EFB1      		in r30,47-32
 2060               	.LVL207:
 2061               	.LM452:
 2062 0730 C49A      		sbi 56-32,4
 2063               	.LBE289:
 2064               	.LBE288:
 2065               	.LM453:
 2066 0732 EF77      		andi r30,lo8(127)
 2067               	.LM454:
 2068 0734 4091 0000 		lds r20,RXBUFFER
 2069               	.LBB290:
 2070               	.LBB291:
 2071               	.LM455:
 2072 0738 C498      		cbi 56-32,4
 2073               	.LM456:
 2074 073a 8FB1      		in r24,47-32
 2075               	.LVL208:
 2076               	.LM457:
 2077 073c 86E2      		ldi r24,lo8(38)
 2078               	.LVL209:
 2079 073e 8FB9      		out 47-32,r24
 2080               	.L277:
 2081               	.LM458:
 2082 0740 779B      		sbis 46-32,7
 2083 0742 00C0      		rjmp .L277
 2084               	.LM459:
 2085 0744 8FEF      		ldi r24,lo8(-1)
 2086 0746 8FB9      		out 47-32,r24
 2087               	.L278:
 2088               	.LM460:
 2089 0748 779B      		sbis 46-32,7
 2090 074a 00C0      		rjmp .L278
 2091               	.LM461:
 2092 074c 8FB1      		in r24,47-32
 2093               	.LVL210:
 2094               	.LM462:
 2095 074e C49A      		sbi 56-32,4
 2096               	.LBE291:
 2097               	.LBE290:
 2098               	.LM463:
 2099 0750 90E0      		ldi r25,lo8(0)
 2100               	.LVL211:
 2101 0752 8F71      		andi r24,lo8(31)
 2102 0754 9070      		andi r25,hi8(31)
 2103               	.LVL212:
 2104 0756 2AEF      		ldi r18,lo8(-6)
 2105 0758 3FEF      		ldi r19,hi8(-6)
 2106 075a BC01      		movw r22,r24
 2107 075c 629F      		mul r22,r18
 2108 075e C001      		movw r24,r0
 2109 0760 639F      		mul r22,r19
 2110 0762 900D      		add r25,r0
 2111 0764 729F      		mul r23,r18
 2112 0766 900D      		add r25,r0
 2113 0768 1124      		clr r1
 2114               	.LVL213:
 2115 076a 23E0      		ldi r18,lo8(3)
 2116 076c 429F      		mul r20,r18
 2117 076e 9001      		movw r18,r0
 2118 0770 1124      		clr r1
 2119 0772 820F      		add r24,r18
 2120 0774 931F      		adc r25,r19
 2121 0776 62E0      		ldi r22,lo8(2)
 2122 0778 70E0      		ldi r23,hi8(2)
 2123 077a 0E94 0000 		call __divmodhi4
 2124 077e 9B01      		movw r18,r22
 2125 0780 AB01      		movw r20,r22
 2126               	.LVL214:
 2127               	.LBB292:
 2128               	.LBB293:
 2129               	.LM464:
 2130 0782 C498      		cbi 56-32,4
 2131               	.LM465:
 2132 0784 8FB1      		in r24,47-32
 2133               	.LVL215:
 2134               	.LM466:
 2135 0786 8EE2      		ldi r24,lo8(46)
 2136               	.LVL216:
 2137 0788 8FB9      		out 47-32,r24
 2138               	.LVL217:
 2139               	.L279:
 2140               	.LM467:
 2141 078a 779B      		sbis 46-32,7
 2142 078c 00C0      		rjmp .L279
 2143               	.LM468:
 2144 078e 8FEF      		ldi r24,lo8(-1)
 2145 0790 8FB9      		out 47-32,r24
 2146               	.L280:
 2147               	.LM469:
 2148 0792 779B      		sbis 46-32,7
 2149 0794 00C0      		rjmp .L280
 2150               	.LM470:
 2151 0796 8FB1      		in r24,47-32
 2152               	.LVL218:
 2153               	.LM471:
 2154 0798 C49A      		sbi 56-32,4
 2155               	.LBE293:
 2156               	.LBE292:
 2157               	.LM472:
 2158 079a 87FF      		sbrs r24,7
 2159 079c 00C0      		rjmp .L281
 2160               	.LM473:
 2161 079e E532      		cpi r30,lo8(37)
 2162 07a0 01F0      		breq .L286
 2163 07a2 E632      		cpi r30,lo8(38)
 2164 07a4 00F4      		brsh .L290
 2165 07a6 E130      		cpi r30,lo8(1)
 2166 07a8 01F0      		breq .L295
 2167 07aa E130      		cpi r30,lo8(1)
 2168 07ac 00F0      		brlo .L294
 2169 07ae E232      		cpi r30,lo8(34)
 2170 07b0 01F4      		brne .L282
 2171 07b2 00C0      		rjmp .L295
 2172               	.L290:
 2173 07b4 EF32      		cpi r30,lo8(47)
 2174 07b6 01F0      		breq .L286
 2175 07b8 E033      		cpi r30,lo8(48)
 2176 07ba 00F4      		brsh .L291
 2177 07bc EB32      		cpi r30,lo8(43)
 2178 07be 01F4      		brne .L282
 2179 07c0 00C0      		rjmp .L287
 2180               	.L291:
 2181 07c2 EF33      		cpi r30,lo8(63)
 2182 07c4 01F0      		breq .L287
 2183 07c6 E835      		cpi r30,lo8(88)
 2184 07c8 01F4      		brne .L282
 2185               	.L287:
 2186               	.LM474:
 2187 07ca A901      		movw r20,r18
 2188 07cc 4F55      		subi r20,lo8(-(-95))
 2189 07ce 5040      		sbci r21,hi8(-(-95))
 2190 07d0 00C0      		rjmp .L282
 2191               	.LVL219:
 2192               	.L286:
 2193               	.LM475:
 2194 07d2 A901      		movw r20,r18
 2195 07d4 4056      		subi r20,lo8(-(-96))
 2196 07d6 5040      		sbci r21,hi8(-(-96))
 2197 07d8 00C0      		rjmp .L282
 2198               	.LVL220:
 2199               	.L281:
 2200               	.LM476:
 2201 07da E532      		cpi r30,lo8(37)
 2202 07dc 01F0      		breq .L295
 2203 07de E632      		cpi r30,lo8(38)
 2204 07e0 00F4      		brsh .L298
 2205 07e2 E130      		cpi r30,lo8(1)
 2206 07e4 01F0      		breq .L293
 2207 07e6 E130      		cpi r30,lo8(1)
 2208 07e8 00F0      		brlo .L292
 2209 07ea E232      		cpi r30,lo8(34)
 2210 07ec 01F4      		brne .L282
 2211 07ee 00C0      		rjmp .L294
 2212               	.L298:
 2213 07f0 EF32      		cpi r30,lo8(47)
 2214 07f2 01F0      		breq .L293
 2215 07f4 E833      		cpi r30,lo8(56)
 2216 07f6 01F0      		breq .L293
 2217 07f8 EB32      		cpi r30,lo8(43)
 2218 07fa 01F4      		brne .L282
 2219               	.LM477:
 2220 07fc A901      		movw r20,r18
 2221 07fe 4456      		subi r20,lo8(-(-100))
 2222 0800 5040      		sbci r21,hi8(-(-100))
 2223 0802 00C0      		rjmp .L282
 2224               	.LVL221:
 2225               	.L295:
 2226               	.LM478:
 2227 0804 A901      		movw r20,r18
 2228 0806 4356      		subi r20,lo8(-(-99))
 2229 0808 5040      		sbci r21,hi8(-(-99))
 2230 080a 00C0      		rjmp .L282
 2231               	.LVL222:
 2232               	.L294:
 2233               	.LM479:
 2234 080c A901      		movw r20,r18
 2235 080e 4556      		subi r20,lo8(-(-101))
 2236 0810 5040      		sbci r21,hi8(-(-101))
 2237 0812 00C0      		rjmp .L282
 2238               	.LVL223:
 2239               	.L293:
 2240               	.LM480:
 2241 0814 A901      		movw r20,r18
 2242 0816 4656      		subi r20,lo8(-(-102))
 2243 0818 5040      		sbci r21,hi8(-(-102))
 2244 081a 00C0      		rjmp .L282
 2245               	.LVL224:
 2246               	.L292:
 2247               	.LM481:
 2248 081c A901      		movw r20,r18
 2249 081e 4756      		subi r20,lo8(-(-103))
 2250 0820 5040      		sbci r21,hi8(-(-103))
 2251               	.LVL225:
 2252               	.L282:
 2253               	.LM482:
 2254 0822 CA01      		movw r24,r20
 2255               	.LVL226:
 2256               	/* epilogue start */
 2257 0824 0895      		ret
 2258               	.LFE20:
 2260               	.global	Initialise_SPI
 2262               	Initialise_SPI:
 2263               	.LFB21:
 2264               	.LM483:
 2265               	/* prologue: function */
 2266               	/* frame size = 0 */
 2267               	.LM484:
 2268 0826 BE98      		cbi 55-32,6
 2269               	.LM485:
 2270 0828 BD9A      		sbi 55-32,5
 2271               	.LM486:
 2272 082a BF9A      		sbi 55-32,7
 2273               	.LM487:
 2274 082c BC9A      		sbi 55-32,4
 2275               	.LM488:
 2276 082e 80E5      		ldi r24,lo8(80)
 2277 0830 8DB9      		out 45-32,r24
 2278               	.LM489:
 2279 0832 BA98      		cbi 55-32,2
 2280               	/* epilogue start */
 2281               	.LM490:
 2282 0834 0895      		ret
 2283               	.LFE21:
 2285               	.global	Initialise_UART
 2287               	Initialise_UART:
 2288               	.LFB22:
 2289               	.LM491:
 2290               	/* prologue: function */
 2291               	/* frame size = 0 */
 2292               	.LM492:
 2293 0836 1BB8      		out 43-32,__zero_reg__
 2294               	.LM493:
 2295 0838 88E1      		ldi r24,lo8(24)
 2296 083a 8AB9      		out 42-32,r24
 2297               	.LM494:
 2298 083c 86E8      		ldi r24,lo8(-122)
 2299 083e 80BD      		out 64-32,r24
 2300               	.LM495:
 2301 0840 10BC      		out 64-32,__zero_reg__
 2302               	.LM496:
 2303 0842 89E1      		ldi r24,lo8(25)
 2304 0844 89B9      		out 41-32,r24
 2305               	/* epilogue start */
 2306               	.LM497:
 2307 0846 0895      		ret
 2308               	.LFE22:
 2310               	.global	usart_transmit
 2312               	usart_transmit:
 2313               	.LFB23:
 2314               	.LM498:
 2315               	.LVL227:
 2316               	/* prologue: function */
 2317               	/* frame size = 0 */
 2318               	.LM499:
 2319 0848 FC01      		movw r30,r24
 2320               	.LVL228:
 2321 084a 00C0      		rjmp .L311
 2322               	.L313:
 2323               	.LM500:
 2324 084c 8CB9      		out 44-32,r24
 2325               	.L312:
 2326               	.LM501:
 2327 084e 5D9B      		sbis 43-32,5
 2328 0850 00C0      		rjmp .L312
 2329 0852 3196      		adiw r30,1
 2330               	.L311:
 2331               	.LM502:
 2332 0854 8081      		ld r24,Z
 2333 0856 8823      		tst r24
 2334 0858 01F4      		brne .L313
 2335               	/* epilogue start */
 2336               	.LM503:
 2337 085a 0895      		ret
 2338               	.LFE23:
 2340               	.global	update_crc
 2342               	update_crc:
 2343               	.LFB26:
 2344               	.LM504:
 2345               	.LVL229:
 2346               	/* prologue: function */
 2347               	/* frame size = 0 */
 2348               	.LM505:
 2349 085c 382F      		mov r19,r24
 2350               	.LVL230:
 2351 085e 20E0      		ldi r18,lo8(0)
 2352               	.LVL231:
 2353 0860 4091 0000 		lds r20,crc
 2354 0864 5091 0000 		lds r21,(crc)+1
 2355 0868 60E0      		ldi r22,lo8(0)
 2356               	.LVL232:
 2357               	.LM506:
 2358 086a E1E2      		ldi r30,lo8(4129)
 2359 086c F0E1      		ldi r31,hi8(4129)
 2360               	.L319:
 2361               	.LM507:
 2362 086e CA01      		movw r24,r20
 2363 0870 8227      		eor r24,r18
 2364 0872 9327      		eor r25,r19
 2365               	.LM508:
 2366 0874 440F      		lsl r20
 2367 0876 551F      		rol r21
 2368               	.LM509:
 2369 0878 97FF      		sbrs r25,7
 2370 087a 00C0      		rjmp .L317
 2371               	.LM510:
 2372 087c 4E27      		eor r20,r30
 2373 087e 5F27      		eor r21,r31
 2374               	.L317:
 2375               	.LM511:
 2376 0880 6F5F      		subi r22,lo8(-(1))
 2377 0882 6830      		cpi r22,lo8(8)
 2378 0884 01F0      		breq .L318
 2379               	.LM512:
 2380 0886 220F      		lsl r18
 2381 0888 331F      		rol r19
 2382               	.LVL233:
 2383 088a 00C0      		rjmp .L319
 2384               	.L318:
 2385 088c 5093 0000 		sts (crc)+1,r21
 2386 0890 4093 0000 		sts crc,r20
 2387               	/* epilogue start */
 2388               	.LM513:
 2389 0894 0895      		ret
 2390               	.LFE26:
 2392               	.global	go
 2394               	go:
 2395               	.LFB25:
 2396               	.LM514:
 2397 0896 1F93      		push r17
 2398 0898 CF93      		push r28
 2399 089a DF93      		push r29
 2400               	/* prologue: function */
 2401               	/* frame size = 0 */
 2402               	.LM515:
 2403 089c 8FEF      		ldi r24,lo8(-1)
 2404 089e 9FEF      		ldi r25,hi8(-1)
 2405 08a0 9093 0000 		sts (crc)+1,r25
 2406 08a4 8093 0000 		sts crc,r24
 2407 08a8 C0E0      		ldi r28,lo8(0)
 2408 08aa D0E0      		ldi r29,hi8(0)
 2409               	.LVL234:
 2410 08ac 00C0      		rjmp .L322
 2411               	.LVL235:
 2412               	.L327:
 2413               	.LM516:
 2414 08ae FE01      		movw r30,r28
 2415 08b0 E050      		subi r30,lo8(-(data))
 2416 08b2 F040      		sbci r31,hi8(-(data))
 2417 08b4 8081      		ld r24,Z
 2418               	.LM517:
 2419 08b6 182F      		mov r17,r24
 2420 08b8 8295      		swap r24
 2421 08ba 8F70      		andi r24,0x0f
 2422 08bc 282F      		mov r18,r24
 2423 08be 30E0      		ldi r19,lo8(0)
 2424               	.LBB294:
 2425               	.LBB295:
 2426               	.LM518:
 2427 08c0 8A30      		cpi r24,lo8(10)
 2428 08c2 00F4      		brsh .L323
 2429 08c4 C901      		movw r24,r18
 2430               	.LVL236:
 2431 08c6 C096      		adiw r24,48
 2432 08c8 00C0      		rjmp .L324
 2433               	.LVL237:
 2434               	.L323:
 2435               	.LM519:
 2436 08ca C901      		movw r24,r18
 2437               	.LVL238:
 2438 08cc C796      		adiw r24,55
 2439               	.L324:
 2440               	.LBE295:
 2441               	.LBE294:
 2442               	.LM520:
 2443 08ce 0E94 0000 		call update_crc
 2444               	.LVL239:
 2445               	.LM521:
 2446 08d2 812F      		mov r24,r17
 2447 08d4 8F70      		andi r24,lo8(15)
 2448 08d6 282F      		mov r18,r24
 2449 08d8 30E0      		ldi r19,lo8(0)
 2450               	.LBB296:
 2451               	.LBB297:
 2452               	.LM522:
 2453 08da 8A30      		cpi r24,lo8(10)
 2454 08dc 00F4      		brsh .L325
 2455 08de C901      		movw r24,r18
 2456               	.LVL240:
 2457 08e0 C096      		adiw r24,48
 2458 08e2 00C0      		rjmp .L326
 2459               	.LVL241:
 2460               	.L325:
 2461               	.LM523:
 2462 08e4 C901      		movw r24,r18
 2463               	.LVL242:
 2464 08e6 C796      		adiw r24,55
 2465               	.L326:
 2466               	.LBE297:
 2467               	.LBE296:
 2468               	.LM524:
 2469 08e8 0E94 0000 		call update_crc
 2470               	.LVL243:
 2471               	.LM525:
 2472 08ec 2196      		adiw r28,1
 2473               	.L322:
 2474 08ee 8091 0000 		lds r24,data_bytes
 2475 08f2 90E0      		ldi r25,lo8(0)
 2476 08f4 C817      		cp r28,r24
 2477 08f6 D907      		cpc r29,r25
 2478 08f8 00F0      		brlo .L327
 2479               	.LM526:
 2480 08fa 8091 0000 		lds r24,crc
 2481               	.LVL244:
 2482 08fe 9091 0000 		lds r25,crc+1
 2483               	.LVL245:
 2484               	.LM527:
 2485 0902 8093 0000 		sts crc_low,r24
 2486               	.LM528:
 2487 0906 9093 0000 		sts crc_high,r25
 2488               	/* epilogue start */
 2489               	.LM529:
 2490 090a DF91      		pop r29
 2491 090c CF91      		pop r28
 2492               	.LVL246:
 2493 090e 1F91      		pop r17
 2494               	.LVL247:
 2495 0910 0895      		ret
 2496               	.LFE25:
 2498               	.global	cal_crc
 2500               	cal_crc:
 2501               	.LFB24:
 2502               	.LM530:
 2503               	/* prologue: function */
 2504               	/* frame size = 0 */
 2505               	.LM531:
 2506 0912 0E94 0000 		call go
 2507               	.LM532:
 2508 0916 80E0      		ldi r24,lo8(0)
 2509 0918 90E0      		ldi r25,hi8(0)
 2510               	/* epilogue start */
 2511 091a 0895      		ret
 2512               	.LFE24:
 2514               	.global	hex2ascii
 2516               	hex2ascii:
 2517               	.LFB27:
 2518               	.LM533:
 2519               	.LVL248:
 2520               	/* prologue: function */
 2521               	/* frame size = 0 */
 2522 091c 282F      		mov r18,r24
 2523 091e 30E0      		ldi r19,lo8(0)
 2524               	.LVL249:
 2525               	.LM534:
 2526 0920 8A30      		cpi r24,lo8(10)
 2527 0922 00F4      		brsh .L332
 2528 0924 205D      		subi r18,lo8(-(48))
 2529 0926 3F4F      		sbci r19,hi8(-(48))
 2530               	.LVL250:
 2531 0928 00C0      		rjmp .L333
 2532               	.LVL251:
 2533               	.L332:
 2534               	.LM535:
 2535 092a 295C      		subi r18,lo8(-(55))
 2536 092c 3F4F      		sbci r19,hi8(-(55))
 2537               	.LVL252:
 2538               	.L333:
 2539               	.LM536:
 2540 092e C901      		movw r24,r18
 2541               	.LVL253:
 2542               	/* epilogue start */
 2543 0930 0895      		ret
 2544               	.LFE27:
 2546               	.global	LoadTXBuffer
 2548               	LoadTXBuffer:
 2549               	.LFB28:
 2550               	.LM537:
 2551 0932 0F93      		push r16
 2552 0934 1F93      		push r17
 2553 0936 CF93      		push r28
 2554 0938 DF93      		push r29
 2555               	/* prologue: function */
 2556               	/* frame size = 0 */
 2557               	.LM538:
 2558 093a 20E0      		ldi r18,lo8(0)
 2559 093c 30E0      		ldi r19,hi8(0)
 2560               	.LVL254:
 2561 093e 80E0      		ldi r24,lo8(0)
 2562 0940 90E0      		ldi r25,hi8(0)
 2563               	.LM539:
 2564 0942 45E5      		ldi r20,lo8(85)
 2565 0944 00C0      		rjmp .L336
 2566               	.L337:
 2567 0946 FC01      		movw r30,r24
 2568 0948 E050      		subi r30,lo8(-(TXBUFFER))
 2569 094a F040      		sbci r31,hi8(-(TXBUFFER))
 2570 094c 4083      		st Z,r20
 2571               	.LM540:
 2572 094e 0196      		adiw r24,1
 2573               	.L336:
 2574 0950 2F5F      		subi r18,lo8(-(1))
 2575 0952 3F4F      		sbci r19,hi8(-(1))
 2576               	.LM541:
 2577 0954 8A30      		cpi r24,10
 2578 0956 9105      		cpc r25,__zero_reg__
 2579 0958 04F0      		brlt .L337
 2580               	.LM542:
 2581 095a 8EE7      		ldi r24,lo8(126)
 2582 095c 8093 0000 		sts TXBUFFER+10,r24
 2583               	.LM543:
 2584 0960 E901      		movw r28,r18
 2585               	.LM544:
 2586 0962 8AE0      		ldi r24,lo8(10)
 2587 0964 90E0      		ldi r25,hi8(10)
 2588 0966 9093 0000 		sts (a)+1,r25
 2589 096a 8093 0000 		sts a,r24
 2590               	.LM545:
 2591 096e 8091 0000 		lds r24,header_bytes
 2592 0972 A82F      		mov r26,r24
 2593 0974 B0E0      		ldi r27,lo8(0)
 2594 0976 B093 0000 		sts (n)+1,r27
 2595 097a A093 0000 		sts n,r26
 2596 097e 40E0      		ldi r20,lo8(header)
 2597 0980 50E0      		ldi r21,hi8(header)
 2598 0982 20E0      		ldi r18,lo8(0)
 2599 0984 30E0      		ldi r19,hi8(0)
 2600               	.LVL255:
 2601 0986 00C0      		rjmp .L338
 2602               	.L339:
 2603               	.LM546:
 2604 0988 FA01      		movw r30,r20
 2605 098a 8191      		ld r24,Z+
 2606 098c AF01      		movw r20,r30
 2607 098e F901      		movw r30,r18
 2608 0990 E050      		subi r30,lo8(-(TXBUFFER+11))
 2609 0992 F040      		sbci r31,hi8(-(TXBUFFER+11))
 2610 0994 8083      		st Z,r24
 2611               	.LM547:
 2612 0996 2196      		adiw r28,1
 2613 0998 2F5F      		subi r18,lo8(-(1))
 2614 099a 3F4F      		sbci r19,hi8(-(1))
 2615               	.L338:
 2616               	.LM548:
 2617 099c 2A17      		cp r18,r26
 2618 099e 3B07      		cpc r19,r27
 2619 09a0 04F0      		brlt .L339
 2620               	.LM549:
 2621 09a2 8091 0000 		lds r24,data_bytes
 2622 09a6 682F      		mov r22,r24
 2623 09a8 70E0      		ldi r23,lo8(0)
 2624 09aa 7093 0000 		sts (m)+1,r23
 2625 09ae 6093 0000 		sts m,r22
 2626 09b2 00E0      		ldi r16,lo8(data)
 2627 09b4 10E0      		ldi r17,hi8(data)
 2628 09b6 AD01      		movw r20,r26
 2629 09b8 455F      		subi r20,lo8(-(11))
 2630 09ba 5F4F      		sbci r21,hi8(-(11))
 2631 09bc 20E0      		ldi r18,lo8(0)
 2632 09be 30E0      		ldi r19,hi8(0)
 2633 09c0 00C0      		rjmp .L340
 2634               	.L341:
 2635               	.LM550:
 2636 09c2 F801      		movw r30,r16
 2637 09c4 8191      		ld r24,Z+
 2638 09c6 8F01      		movw r16,r30
 2639 09c8 FA01      		movw r30,r20
 2640 09ca E050      		subi r30,lo8(-(TXBUFFER))
 2641 09cc F040      		sbci r31,hi8(-(TXBUFFER))
 2642 09ce 8083      		st Z,r24
 2643               	.LM551:
 2644 09d0 2196      		adiw r28,1
 2645 09d2 2F5F      		subi r18,lo8(-(1))
 2646 09d4 3F4F      		sbci r19,hi8(-(1))
 2647 09d6 4F5F      		subi r20,lo8(-(1))
 2648 09d8 5F4F      		sbci r21,hi8(-(1))
 2649               	.L340:
 2650               	.LM552:
 2651 09da 2617      		cp r18,r22
 2652 09dc 3707      		cpc r19,r23
 2653 09de 04F0      		brlt .L341
 2654 09e0 3093 0000 		sts (i)+1,r19
 2655 09e4 2093 0000 		sts i,r18
 2656               	.LM553:
 2657 09e8 FD01      		movw r30,r26
 2658 09ea E60F      		add r30,r22
 2659 09ec F71F      		adc r31,r23
 2660 09ee 3A96      		adiw r30,10
 2661 09f0 F093 0000 		sts (b)+1,r31
 2662 09f4 E093 0000 		sts b,r30
 2663 09f8 3A97      		sbiw r30,10
 2664               	.LM554:
 2665 09fa 8091 0000 		lds r24,crc_high
 2666 09fe DF01      		movw r26,r30
 2667 0a00 A050      		subi r26,lo8(-(TXBUFFER+11))
 2668 0a02 B040      		sbci r27,hi8(-(TXBUFFER+11))
 2669 0a04 8C93      		st X,r24
 2670               	.LM555:
 2671 0a06 8091 0000 		lds r24,crc_low
 2672 0a0a DF01      		movw r26,r30
 2673 0a0c A050      		subi r26,lo8(-(TXBUFFER+12))
 2674 0a0e B040      		sbci r27,hi8(-(TXBUFFER+12))
 2675 0a10 8C93      		st X,r24
 2676               	.LM556:
 2677 0a12 DF01      		movw r26,r30
 2678 0a14 A050      		subi r26,lo8(-(TXBUFFER+13))
 2679 0a16 B040      		sbci r27,hi8(-(TXBUFFER+13))
 2680 0a18 8EE7      		ldi r24,lo8(126)
 2681 0a1a 8C93      		st X,r24
 2682               	.LM557:
 2683 0a1c E050      		subi r30,lo8(-(TXBUFFER+14))
 2684 0a1e F040      		sbci r31,hi8(-(TXBUFFER+14))
 2685 0a20 8083      		st Z,r24
 2686               	.LM558:
 2687 0a22 2496      		adiw r28,4
 2688 0a24 D093 0000 		sts (no_bytes_tosend)+1,r29
 2689 0a28 C093 0000 		sts no_bytes_tosend,r28
 2690               	/* epilogue start */
 2691               	.LM559:
 2692 0a2c DF91      		pop r29
 2693 0a2e CF91      		pop r28
 2694               	.LVL256:
 2695 0a30 1F91      		pop r17
 2696 0a32 0F91      		pop r16
 2697 0a34 0895      		ret
 2698               	.LFE28:
 2700               		.data
 2701               	.LC0:
 2702 0000 5761 6B65 		.string	"Wake up complete : %d a\r\n"
 2702      2075 7020 
 2702      636F 6D70 
 2702      6C65 7465 
 2702      203A 2025 
 2703               		.text
 2704               	.global	SetupCC1020PD
 2706               	SetupCC1020PD:
 2707               	.LFB9:
 2708               	.LM560:
 2709 0a36 0F93      		push r16
 2710 0a38 1F93      		push r17
 2711 0a3a DF93      		push r29
 2712 0a3c CF93      		push r28
 2713 0a3e CDB7      		in r28,__SP_L__
 2714 0a40 DEB7      		in r29,__SP_H__
 2715 0a42 C456      		subi r28,lo8(-(-100))
 2716 0a44 D040      		sbci r29,hi8(-(-100))
 2717 0a46 0FB6      		in __tmp_reg__,__SREG__
 2718 0a48 F894      		cli
 2719 0a4a DEBF      		out __SP_H__,r29
 2720 0a4c 0FBE      		out __SREG__,__tmp_reg__
 2721 0a4e CDBF      		out __SP_L__,r28
 2722               	/* prologue: function */
 2723               	/* frame size = 100 */
 2724               	.LBB298:
 2725               	.LBB299:
 2726               	.LM561:
 2727 0a50 C498      		cbi 56-32,4
 2728               	.LM562:
 2729 0a52 8FB1      		in r24,47-32
 2730               	.LVL257:
 2731               	.LM563:
 2732 0a54 81E0      		ldi r24,lo8(1)
 2733               	.LVL258:
 2734 0a56 8FB9      		out 47-32,r24
 2735               	.L344:
 2736               	.LM564:
 2737 0a58 779B      		sbis 46-32,7
 2738 0a5a 00C0      		rjmp .L344
 2739               	.LM565:
 2740 0a5c 8FB1      		in r24,47-32
 2741               	.LVL259:
 2742               	.LM566:
 2743 0a5e 8FE1      		ldi r24,lo8(31)
 2744               	.LVL260:
 2745 0a60 8FB9      		out 47-32,r24
 2746               	.L345:
 2747               	.LM567:
 2748 0a62 779B      		sbis 46-32,7
 2749 0a64 00C0      		rjmp .L345
 2750               	.LM568:
 2751 0a66 C49A      		sbi 56-32,4
 2752               	.LBE299:
 2753               	.LBE298:
 2754               	.LBB300:
 2755               	.LBB301:
 2756               	.LM569:
 2757 0a68 C498      		cbi 56-32,4
 2758               	.LM570:
 2759 0a6a 8FB1      		in r24,47-32
 2760               	.LVL261:
 2761               	.LM571:
 2762 0a6c 1FB8      		out 47-32,__zero_reg__
 2763               	.L346:
 2764               	.LM572:
 2765 0a6e 779B      		sbis 46-32,7
 2766 0a70 00C0      		rjmp .L346
 2767               	.LM573:
 2768 0a72 8FEF      		ldi r24,lo8(-1)
 2769               	.LVL262:
 2770 0a74 8FB9      		out 47-32,r24
 2771               	.L347:
 2772               	.LM574:
 2773 0a76 779B      		sbis 46-32,7
 2774 0a78 00C0      		rjmp .L347
 2775               	.LM575:
 2776 0a7a 2FB1      		in r18,47-32
 2777               	.LVL263:
 2778               	.LM576:
 2779 0a7c C49A      		sbi 56-32,4
 2780               	.LBE301:
 2781               	.LBE300:
 2782               	.LM577:
 2783 0a7e 00D0      		rcall .
 2784 0a80 00D0      		rcall .
 2785 0a82 00D0      		rcall .
 2786 0a84 EDB7      		in r30,__SP_L__
 2787 0a86 FEB7      		in r31,__SP_H__
 2788 0a88 3196      		adiw r30,1
 2789 0a8a 8E01      		movw r16,r28
 2790 0a8c 0F5F      		subi r16,lo8(-(1))
 2791 0a8e 1F4F      		sbci r17,hi8(-(1))
 2792 0a90 ADB7      		in r26,__SP_L__
 2793 0a92 BEB7      		in r27,__SP_H__
 2794 0a94 1296      		adiw r26,1+1
 2795 0a96 1C93      		st X,r17
 2796 0a98 0E93      		st -X,r16
 2797 0a9a 1197      		sbiw r26,1
 2798 0a9c 80E0      		ldi r24,lo8(.LC0)
 2799 0a9e 90E0      		ldi r25,hi8(.LC0)
 2800 0aa0 9383      		std Z+3,r25
 2801 0aa2 8283      		std Z+2,r24
 2802 0aa4 2483      		std Z+4,r18
 2803 0aa6 1582      		std Z+5,__zero_reg__
 2804 0aa8 0E94 0000 		call sprintf
 2805               	.LVL264:
 2806               	.LM578:
 2807 0aac 8DB7      		in r24,__SP_L__
 2808 0aae 9EB7      		in r25,__SP_H__
 2809 0ab0 0696      		adiw r24,6
 2810 0ab2 0FB6      		in __tmp_reg__,__SREG__
 2811 0ab4 F894      		cli
 2812 0ab6 9EBF      		out __SP_H__,r25
 2813 0ab8 0FBE      		out __SREG__,__tmp_reg__
 2814 0aba 8DBF      		out __SP_L__,r24
 2815 0abc C801      		movw r24,r16
 2816 0abe 0E94 0000 		call usart_transmit
 2817               	.LBB302:
 2818               	.LBB303:
 2819               	.LM579:
 2820 0ac2 C498      		cbi 56-32,4
 2821               	.LM580:
 2822 0ac4 8FB1      		in r24,47-32
 2823               	.LVL265:
 2824               	.LM581:
 2825 0ac6 89E3      		ldi r24,lo8(57)
 2826               	.LVL266:
 2827 0ac8 8FB9      		out 47-32,r24
 2828               	.L348:
 2829               	.LM582:
 2830 0aca 779B      		sbis 46-32,7
 2831 0acc 00C0      		rjmp .L348
 2832               	.LM583:
 2833 0ace 8FB1      		in r24,47-32
 2834               	.LVL267:
 2835               	.LM584:
 2836 0ad0 1FB8      		out 47-32,__zero_reg__
 2837               	.L349:
 2838               	.LM585:
 2839 0ad2 779B      		sbis 46-32,7
 2840 0ad4 00C0      		rjmp .L349
 2841               	.LM586:
 2842 0ad6 C49A      		sbi 56-32,4
 2843               	/* epilogue start */
 2844               	.LBE303:
 2845               	.LBE302:
 2846               	.LM587:
 2847 0ad8 CC59      		subi r28,lo8(-(100))
 2848 0ada DF4F      		sbci r29,hi8(-(100))
 2849 0adc 0FB6      		in __tmp_reg__,__SREG__
 2850 0ade F894      		cli
 2851 0ae0 DEBF      		out __SP_H__,r29
 2852 0ae2 0FBE      		out __SREG__,__tmp_reg__
 2853 0ae4 CDBF      		out __SP_L__,r28
 2854 0ae6 CF91      		pop r28
 2855 0ae8 DF91      		pop r29
 2856 0aea 1F91      		pop r17
 2857 0aec 0F91      		pop r16
 2858 0aee 0895      		ret
 2859               	.LFE9:
 2861               		.data
 2862               	.LC1:
 2863 001a 0A0D 5769 		.string	"\n\rWireless Comm using CC1020"
 2863      7265 6C65 
 2863      7373 2043 
 2863      6F6D 6D20 
 2863      7573 696E 
 2864               	.LC2:
 2865 0037 0A0D 5458 		.string	"\n\rTX Calibration failed"
 2865      2043 616C 
 2865      6962 7261 
 2865      7469 6F6E 
 2865      2066 6169 
 2866               	.LC3:
 2867 004f 0A0D 5258 		.string	"\n\rRX Calibration failed"
 2867      2043 616C 
 2867      6962 7261 
 2867      7469 6F6E 
 2867      2066 6169 
 2868               	.LC4:
 2869 0067 0A0D 2053 		.string	"\n\r STATUS = %x"
 2869      5441 5455 
 2869      5320 3D20 
 2869      2578 00
 2870               	.LC5:
 2871 0076 0A0D 504C 		.string	"\n\rPLL LOCK failed"
 2871      4C20 4C4F 
 2871      434B 2066 
 2871      6169 6C65 
 2871      6400 
 2872               	.LC6:
 2873 0088 0A0D 5472 		.string	"\n\rTransmitting .....\n"
 2873      616E 736D 
 2873      6974 7469 
 2873      6E67 202E 
 2873      2E2E 2E2E 
 2874               	.LC7:
 2875 009e 0A0D 5472 		.string	"\n\rTrans complete;count=%d"
 2875      616E 7320 
 2875      636F 6D70 
 2875      6C65 7465 
 2875      3B63 6F75 
 2876               		.text
 2877               	.global	main
 2879               	main:
 2880               	.LFB29:
 2881               	.LM588:
 2882 0af0 6F92      		push r6
 2883 0af2 7F92      		push r7
 2884 0af4 8F92      		push r8
 2885 0af6 9F92      		push r9
 2886 0af8 AF92      		push r10
 2887 0afa BF92      		push r11
 2888 0afc CF92      		push r12
 2889 0afe DF92      		push r13
 2890 0b00 EF92      		push r14
 2891 0b02 FF92      		push r15
 2892 0b04 0F93      		push r16
 2893 0b06 1F93      		push r17
 2894 0b08 DF93      		push r29
 2895 0b0a CF93      		push r28
 2896 0b0c CDB7      		in r28,__SP_L__
 2897 0b0e DEB7      		in r29,__SP_H__
 2898 0b10 6E97      		sbiw r28,30
 2899 0b12 0FB6      		in __tmp_reg__,__SREG__
 2900 0b14 F894      		cli
 2901 0b16 DEBF      		out __SP_H__,r29
 2902 0b18 0FBE      		out __SREG__,__tmp_reg__
 2903 0b1a CDBF      		out __SP_L__,r28
 2904               	/* prologue: function */
 2905               	/* frame size = 30 */
 2906               	.LM589:
 2907 0b1c 8FEF      		ldi r24,lo8(-1)
 2908 0b1e 8ABB      		out 58-32,r24
 2909               	.LBB304:
 2910               	.LBB305:
 2911               	.LM590:
 2912 0b20 BE98      		cbi 55-32,6
 2913               	.LM591:
 2914 0b22 BD9A      		sbi 55-32,5
 2915               	.LM592:
 2916 0b24 BF9A      		sbi 55-32,7
 2917               	.LM593:
 2918 0b26 BC9A      		sbi 55-32,4
 2919               	.LM594:
 2920 0b28 80E5      		ldi r24,lo8(80)
 2921 0b2a 8DB9      		out 45-32,r24
 2922               	.LM595:
 2923 0b2c BA98      		cbi 55-32,2
 2924               	.LBE305:
 2925               	.LBE304:
 2926               	.LBB306:
 2927               	.LBB307:
 2928               	.LM596:
 2929 0b2e 1BB8      		out 43-32,__zero_reg__
 2930               	.LM597:
 2931 0b30 88E1      		ldi r24,lo8(24)
 2932 0b32 8AB9      		out 42-32,r24
 2933               	.LM598:
 2934 0b34 86E8      		ldi r24,lo8(-122)
 2935 0b36 80BD      		out 64-32,r24
 2936               	.LM599:
 2937 0b38 10BC      		out 64-32,__zero_reg__
 2938               	.LM600:
 2939 0b3a 89E1      		ldi r24,lo8(25)
 2940 0b3c 89B9      		out 41-32,r24
 2941               	.LBE307:
 2942               	.LBE306:
 2943               	.LM601:
 2944 0b3e C49A      		sbi 56-32,4
 2945               	.LM602:
 2946 0b40 8E01      		movw r16,r28
 2947 0b42 0F5F      		subi r16,lo8(-(1))
 2948 0b44 1F4F      		sbci r17,hi8(-(1))
 2949 0b46 C801      		movw r24,r16
 2950 0b48 60E0      		ldi r22,lo8(.LC1)
 2951 0b4a 70E0      		ldi r23,hi8(.LC1)
 2952 0b4c 0E94 0000 		call strcpy
 2953 0b50 F801      		movw r30,r16
 2954 0b52 00C0      		rjmp .L358
 2955               	.L360:
 2956               	.LBB308:
 2957               	.LBB309:
 2958               	.LM603:
 2959 0b54 8CB9      		out 44-32,r24
 2960               	.L359:
 2961               	.LM604:
 2962 0b56 5D9B      		sbis 43-32,5
 2963 0b58 00C0      		rjmp .L359
 2964 0b5a 3196      		adiw r30,1
 2965               	.L358:
 2966               	.LM605:
 2967 0b5c 8081      		ld r24,Z
 2968 0b5e 8823      		tst r24
 2969 0b60 01F4      		brne .L360
 2970               	.LBE309:
 2971               	.LBE308:
 2972               	.LM606:
 2973 0b62 0E94 0000 		call SetupCC1020PD
 2974               	.LM607:
 2975 0b66 0E94 0000 		call ResetCC1020
 2976               	.LM608:
 2977 0b6a 0E94 0000 		call SetupCC1020Allregisters
 2978               	.LM609:
 2979 0b6e 87E4      		ldi r24,lo8(71)
 2980 0b70 0E94 0000 		call WakeUpCC1020ToTX
 2981               	.LM610:
 2982 0b74 8FE0      		ldi r24,lo8(15)
 2983 0b76 0E94 0000 		call CalibrateCC1020
 2984 0b7a 892B      		or r24,r25
 2985 0b7c 01F4      		brne .L361
 2986               	.LM611:
 2987 0b7e CE01      		movw r24,r28
 2988 0b80 0196      		adiw r24,1
 2989 0b82 60E0      		ldi r22,lo8(.LC2)
 2990 0b84 70E0      		ldi r23,hi8(.LC2)
 2991 0b86 0E94 0000 		call strcpy
 2992 0b8a F801      		movw r30,r16
 2993 0b8c 00C0      		rjmp .L362
 2994               	.L364:
 2995               	.LBB310:
 2996               	.LBB311:
 2997               	.LM612:
 2998 0b8e 8CB9      		out 44-32,r24
 2999               	.L363:
 3000               	.LM613:
 3001 0b90 5D9B      		sbis 43-32,5
 3002 0b92 00C0      		rjmp .L363
 3003 0b94 3196      		adiw r30,1
 3004               	.L362:
 3005               	.LM614:
 3006 0b96 8081      		ld r24,Z
 3007 0b98 8823      		tst r24
 3008 0b9a 01F4      		brne .L364
 3009               	.L361:
 3010               	.LBE311:
 3011               	.LBE310:
 3012               	.LM615:
 3013 0b9c 87E4      		ldi r24,lo8(71)
 3014 0b9e 0E94 0000 		call WakeUpCC1020ToRX
 3015               	.LM616:
 3016 0ba2 8FE0      		ldi r24,lo8(15)
 3017 0ba4 0E94 0000 		call CalibrateCC1020
 3018 0ba8 892B      		or r24,r25
 3019 0baa 01F4      		brne .L365
 3020               	.LM617:
 3021 0bac CE01      		movw r24,r28
 3022 0bae 0196      		adiw r24,1
 3023 0bb0 60E0      		ldi r22,lo8(.LC3)
 3024 0bb2 70E0      		ldi r23,hi8(.LC3)
 3025 0bb4 0E94 0000 		call strcpy
 3026 0bb8 F801      		movw r30,r16
 3027 0bba 00C0      		rjmp .L366
 3028               	.L368:
 3029               	.LBB312:
 3030               	.LBB313:
 3031               	.LM618:
 3032 0bbc 8CB9      		out 44-32,r24
 3033               	.L367:
 3034               	.LM619:
 3035 0bbe 5D9B      		sbis 43-32,5
 3036 0bc0 00C0      		rjmp .L367
 3037 0bc2 3196      		adiw r30,1
 3038               	.L366:
 3039               	.LM620:
 3040 0bc4 8081      		ld r24,Z
 3041 0bc6 8823      		tst r24
 3042 0bc8 01F4      		brne .L368
 3043               	.L365:
 3044               	.LBE313:
 3045               	.LBE312:
 3046               	.LBB314:
 3047               	.LBB315:
 3048               	.LM621:
 3049 0bca C498      		cbi 56-32,4
 3050               	.LM622:
 3051 0bcc 8FB1      		in r24,47-32
 3052               	.LVL268:
 3053               	.LM623:
 3054 0bce 80E8      		ldi r24,lo8(-128)
 3055               	.LVL269:
 3056 0bd0 8FB9      		out 47-32,r24
 3057               	.L369:
 3058               	.LM624:
 3059 0bd2 779B      		sbis 46-32,7
 3060 0bd4 00C0      		rjmp .L369
 3061               	.LM625:
 3062 0bd6 8FEF      		ldi r24,lo8(-1)
 3063 0bd8 8FB9      		out 47-32,r24
 3064               	.L370:
 3065               	.LM626:
 3066 0bda 779B      		sbis 46-32,7
 3067 0bdc 00C0      		rjmp .L370
 3068               	.LM627:
 3069 0bde 2FB1      		in r18,47-32
 3070               	.LVL270:
 3071               	.LM628:
 3072 0be0 C49A      		sbi 56-32,4
 3073               	.LBE315:
 3074               	.LBE314:
 3075               	.LM629:
 3076 0be2 00D0      		rcall .
 3077 0be4 00D0      		rcall .
 3078 0be6 00D0      		rcall .
 3079 0be8 EDB7      		in r30,__SP_L__
 3080 0bea FEB7      		in r31,__SP_H__
 3081 0bec 3196      		adiw r30,1
 3082 0bee CE01      		movw r24,r28
 3083 0bf0 0196      		adiw r24,1
 3084 0bf2 ADB7      		in r26,__SP_L__
 3085 0bf4 BEB7      		in r27,__SP_H__
 3086 0bf6 1296      		adiw r26,1+1
 3087 0bf8 9C93      		st X,r25
 3088 0bfa 8E93      		st -X,r24
 3089 0bfc 1197      		sbiw r26,1
 3090 0bfe 80E0      		ldi r24,lo8(.LC4)
 3091 0c00 90E0      		ldi r25,hi8(.LC4)
 3092 0c02 9383      		std Z+3,r25
 3093 0c04 8283      		std Z+2,r24
 3094 0c06 2483      		std Z+4,r18
 3095 0c08 1582      		std Z+5,__zero_reg__
 3096 0c0a 0E94 0000 		call sprintf
 3097               	.LVL271:
 3098 0c0e F801      		movw r30,r16
 3099 0c10 8DB7      		in r24,__SP_L__
 3100 0c12 9EB7      		in r25,__SP_H__
 3101 0c14 0696      		adiw r24,6
 3102 0c16 0FB6      		in __tmp_reg__,__SREG__
 3103 0c18 F894      		cli
 3104 0c1a 9EBF      		out __SP_H__,r25
 3105 0c1c 0FBE      		out __SREG__,__tmp_reg__
 3106 0c1e 8DBF      		out __SP_L__,r24
 3107 0c20 00C0      		rjmp .L371
 3108               	.L373:
 3109               	.LBB316:
 3110               	.LBB317:
 3111               	.LM630:
 3112 0c22 8CB9      		out 44-32,r24
 3113               	.L372:
 3114               	.LM631:
 3115 0c24 5D9B      		sbis 43-32,5
 3116 0c26 00C0      		rjmp .L372
 3117 0c28 3196      		adiw r30,1
 3118               	.L371:
 3119               	.LM632:
 3120 0c2a 8081      		ld r24,Z
 3121 0c2c 8823      		tst r24
 3122 0c2e 01F4      		brne .L373
 3123               	.LBE317:
 3124               	.LBE316:
 3125               	.LM633:
 3126 0c30 B99A      		sbi 55-32,1
 3127               	.LM634:
 3128 0c32 7E01      		movw r14,r28
 3129 0c34 0894      		sec
 3130 0c36 E11C      		adc r14,__zero_reg__
 3131 0c38 F11C      		adc r15,__zero_reg__
 3132               	.LBB318:
 3133               	.LBB319:
 3134               	.LBB320:
 3135               	.LBB321:
 3136               	.LM635:
 3137 0c3a 20ED      		ldi r18,lo8(2000)
 3138 0c3c 822E      		mov r8,r18
 3139 0c3e 27E0      		ldi r18,hi8(2000)
 3140 0c40 922E      		mov r9,r18
 3141               	.LBE321:
 3142               	.LBE320:
 3143               	.LBE319:
 3144               	.LBE318:
 3145               	.LBB325:
 3146               	.LBB326:
 3147               	.LM636:
 3148 0c42 6624      		clr r6
 3149 0c44 6394      		inc r6
 3150               	.LM637:
 3151 0c46 9FE1      		ldi r25,lo8(31)
 3152 0c48 792E      		mov r7,r25
 3153               	.LBE326:
 3154               	.LBE325:
 3155               	.LM638:
 3156 0c4a 80E0      		ldi r24,lo8(.LC7)
 3157 0c4c A82E      		mov r10,r24
 3158 0c4e 80E0      		ldi r24,hi8(.LC7)
 3159 0c50 B82E      		mov r11,r24
 3160               	.LBB328:
 3161               	.LBB329:
 3162               	.LBB330:
 3163               	.LBB331:
 3164               	.LBB332:
 3165               	.LM639:
 3166 0c52 C12C      		mov r12,__zero_reg__
 3167 0c54 BAEF      		ldi r27,hi8(-1536)
 3168 0c56 DB2E      		mov r13,r27
 3169               	.LVL272:
 3170               	.L387:
 3171               	.LBE332:
 3172               	.LBE331:
 3173               	.LBE330:
 3174               	.LBE329:
 3175               	.LBE328:
 3176               	.LBB337:
 3177               	.LBB338:
 3178               	.LM640:
 3179 0c58 0E94 0000 		call go
 3180               	.LVL273:
 3181               	.LBE338:
 3182               	.LBE337:
 3183               	.LM641:
 3184 0c5c 0E94 0000 		call LoadTXBuffer
 3185               	.LM642:
 3186 0c60 87E4      		ldi r24,lo8(71)
 3187 0c62 0E94 0000 		call WakeUpCC1020ToTX
 3188               	.LM643:
 3189 0c66 87E4      		ldi r24,lo8(71)
 3190 0c68 6FE0      		ldi r22,lo8(15)
 3191 0c6a 0E94 0000 		call SetupCC1020TX
 3192 0c6e 8823      		tst r24
 3193 0c70 01F4      		brne .L374
 3194               	.LM644:
 3195 0c72 C701      		movw r24,r14
 3196 0c74 60E0      		ldi r22,lo8(.LC5)
 3197 0c76 70E0      		ldi r23,hi8(.LC5)
 3198 0c78 0E94 0000 		call strcpy
 3199 0c7c F801      		movw r30,r16
 3200 0c7e 00C0      		rjmp .L375
 3201               	.L377:
 3202               	.LBB339:
 3203               	.LBB340:
 3204               	.LM645:
 3205 0c80 8CB9      		out 44-32,r24
 3206               	.L376:
 3207               	.LM646:
 3208 0c82 5D9B      		sbis 43-32,5
 3209 0c84 00C0      		rjmp .L376
 3210 0c86 3196      		adiw r30,1
 3211               	.L375:
 3212               	.LM647:
 3213 0c88 8081      		ld r24,Z
 3214 0c8a 8823      		tst r24
 3215 0c8c 01F4      		brne .L377
 3216               	.L374:
 3217               	.LBE340:
 3218               	.LBE339:
 3219               	.LM648:
 3220 0c8e C701      		movw r24,r14
 3221 0c90 60E0      		ldi r22,lo8(.LC6)
 3222 0c92 70E0      		ldi r23,hi8(.LC6)
 3223 0c94 0E94 0000 		call strcpy
 3224 0c98 F801      		movw r30,r16
 3225 0c9a 00C0      		rjmp .L378
 3226               	.L380:
 3227               	.LBB341:
 3228               	.LBB342:
 3229               	.LM649:
 3230 0c9c 8CB9      		out 44-32,r24
 3231               	.L379:
 3232               	.LM650:
 3233 0c9e 5D9B      		sbis 43-32,5
 3234 0ca0 00C0      		rjmp .L379
 3235 0ca2 3196      		adiw r30,1
 3236               	.L378:
 3237               	.LM651:
 3238 0ca4 8081      		ld r24,Z
 3239 0ca6 8823      		tst r24
 3240 0ca8 01F4      		brne .L380
 3241               	.LBE342:
 3242               	.LBE341:
 3243               	.LM652:
 3244 0caa D89A      		sbi 59-32,0
 3245               	.LM653:
 3246 0cac 0E94 0000 		call Transmitpacket
 3247               	.LBB343:
 3248               	.LBB324:
 3249               	.LBB323:
 3250               	.LBB322:
 3251               	.LM654:
 3252 0cb0 F401      		movw r30,r8
 3253               	.LVL274:
 3254               	/* #APP */
 3255               	 ;  105 "/usr/lib/gcc/avr/4.3.4/../../../avr/include/util/delay_basic.h" 1
 3256 0cb2 3197      		1: sbiw r30,1
 3257 0cb4 01F4      		brne 1b
 3258               	 ;  0 "" 2
 3259               	/* #NOAPP */
 3260               	.LBE322:
 3261               	.LBE323:
 3262               	.LBE324:
 3263               	.LBE343:
 3264               	.LBB344:
 3265               	.LBB327:
 3266               	.LM655:
 3267 0cb6 C498      		cbi 56-32,4
 3268               	.LM656:
 3269 0cb8 2FB1      		in r18,47-32
 3270               	.LVL275:
 3271               	.LM657:
 3272 0cba 6FB8      		out 47-32,r6
 3273               	.L381:
 3274               	.LM658:
 3275 0cbc 779B      		sbis 46-32,7
 3276 0cbe 00C0      		rjmp .L381
 3277               	.LM659:
 3278 0cc0 2FB1      		in r18,47-32
 3279               	.LVL276:
 3280               	.LM660:
 3281 0cc2 7FB8      		out 47-32,r7
 3282               	.L382:
 3283               	.LM661:
 3284 0cc4 779B      		sbis 46-32,7
 3285 0cc6 00C0      		rjmp .L382
 3286               	.LM662:
 3287 0cc8 C49A      		sbi 56-32,4
 3288               	.LBE327:
 3289               	.LBE344:
 3290               	.LM663:
 3291 0cca D898      		cbi 59-32,0
 3292               	.LM664:
 3293 0ccc 00D0      		rcall .
 3294 0cce 00D0      		rcall .
 3295 0cd0 00D0      		rcall .
 3296 0cd2 EDB7      		in r30,__SP_L__
 3297 0cd4 FEB7      		in r31,__SP_H__
 3298               	.LVL277:
 3299 0cd6 3196      		adiw r30,1
 3300 0cd8 ADB7      		in r26,__SP_L__
 3301 0cda BEB7      		in r27,__SP_H__
 3302 0cdc 1296      		adiw r26,1+1
 3303 0cde FC92      		st X,r15
 3304 0ce0 EE92      		st -X,r14
 3305 0ce2 1197      		sbiw r26,1
 3306 0ce4 B382      		std Z+3,r11
 3307 0ce6 A282      		std Z+2,r10
 3308 0ce8 9583      		std Z+5,r25
 3309 0cea 8483      		std Z+4,r24
 3310               	.LVL278:
 3311 0cec 0E94 0000 		call sprintf
 3312               	.LVL279:
 3313 0cf0 F801      		movw r30,r16
 3314 0cf2 8DB7      		in r24,__SP_L__
 3315 0cf4 9EB7      		in r25,__SP_H__
 3316 0cf6 0696      		adiw r24,6
 3317 0cf8 0FB6      		in __tmp_reg__,__SREG__
 3318 0cfa F894      		cli
 3319 0cfc 9EBF      		out __SP_H__,r25
 3320 0cfe 0FBE      		out __SREG__,__tmp_reg__
 3321 0d00 8DBF      		out __SP_L__,r24
 3322 0d02 00C0      		rjmp .L383
 3323               	.L385:
 3324               	.LBB345:
 3325               	.LBB346:
 3326               	.LM665:
 3327 0d04 8CB9      		out 44-32,r24
 3328               	.L384:
 3329               	.LM666:
 3330 0d06 5D9B      		sbis 43-32,5
 3331 0d08 00C0      		rjmp .L384
 3332 0d0a 3196      		adiw r30,1
 3333               	.L383:
 3334               	.LM667:
 3335 0d0c 8081      		ld r24,Z
 3336 0d0e 8823      		tst r24
 3337 0d10 01F4      		brne .L385
 3338 0d12 81E0      		ldi r24,lo8(1)
 3339 0d14 90E0      		ldi r25,hi8(1)
 3340               	.LVL280:
 3341               	.L386:
 3342               	.LBE346:
 3343               	.LBE345:
 3344               	.LBB347:
 3345               	.LBB336:
 3346               	.LBB335:
 3347               	.LBB334:
 3348               	.LBB333:
 3349               	.LM668:
 3350 0d16 F601      		movw r30,r12
 3351               	.LVL281:
 3352               	/* #APP */
 3353               	 ;  105 "/usr/lib/gcc/avr/4.3.4/../../../avr/include/util/delay_basic.h" 1
 3354 0d18 3197      		1: sbiw r30,1
 3355 0d1a 01F4      		brne 1b
 3356               	 ;  0 "" 2
 3357               	/* #NOAPP */
 3358               	.LBE333:
 3359               	.LBE334:
 3360               	.LBE335:
 3361               	.LBE336:
 3362               	.LM669:
 3363 0d1c 0196      		adiw r24,1
 3364 0d1e 8937      		cpi r24,121
 3365 0d20 9105      		cpc r25,__zero_reg__
 3366 0d22 01F4      		brne .L386
 3367 0d24 00C0      		rjmp .L387
 3368               	.LBE347:
 3369               	.LFE29:
 3371               	.global	DefaultConfig433
 3372               		.data
 3375               	DefaultConfig433:
 3376 00b8 0F        		.byte	15
 3377 00b9 FF        		.byte	-1
 3378 00ba 8F        		.byte	-113
 3379 00bb 39        		.byte	57
 3380 00bc F0        		.byte	-16
 3381 00bd 0F        		.byte	15
 3382 00be 3B        		.byte	59
 3383 00bf 39        		.byte	57
 3384 00c0 FA        		.byte	-6
 3385 00c1 B9        		.byte	-71
 3386 00c2 3B        		.byte	59
 3387 00c3 44        		.byte	68
 3388 00c4 50        		.byte	80
 3389 00c5 0B        		.byte	11
 3390 00c6 CC        		.byte	-52
 3391 00c7 2F        		.byte	47
 3392 00c8 61        		.byte	97
 3393 00c9 55        		.byte	85
 3394 00ca 2F        		.byte	47
 3395 00cb 2D        		.byte	45
 3396 00cc 10        		.byte	16
 3397 00cd 78        		.byte	120
 3398 00ce 47        		.byte	71
 3399 00cf 14        		.byte	20
 3400 00d0 22        		.byte	34
 3401 00d1 AE        		.byte	-82
 3402 00d2 34        		.byte	52
 3403 00d3 F0        		.byte	-16
 3404 00d4 00        		.byte	0
 3405 00d5 00        		.byte	0
 3406 00d6 00        		.byte	0
 3407 00d7 00        		.byte	0
 3408               	.global	TX_complete
 3409               	.global	TX_complete
 3410               		.section .bss
 3413               	TX_complete:
 3414 0000 0000      		.skip 2,0
 3415               	.global	RX_complete
 3416               	.global	RX_complete
 3419               	RX_complete:
 3420 0002 0000      		.skip 2,0
 3421               	.global	i
 3422               	.global	i
 3425               	i:
 3426 0004 0000      		.skip 2,0
 3427               	.global	a
 3428               	.global	a
 3431               	a:
 3432 0006 0000      		.skip 2,0
 3433               	.global	n
 3434               	.global	n
 3437               	n:
 3438 0008 0000      		.skip 2,0
 3439               	.global	m
 3440               	.global	m
 3443               	m:
 3444 000a 0000      		.skip 2,0
 3445               	.global	b
 3446               	.global	b
 3449               	b:
 3450 000c 0000      		.skip 2,0
 3451               	.global	header
 3452               		.data
 3455               	header:
 3456 00d8 01        		.byte	1
 3457 00d9 02        		.byte	2
 3458 00da 03        		.byte	3
 3459 00db 04        		.byte	4
 3460 00dc 05        		.byte	5
 3461               	.global	header_bytes
 3464               	header_bytes:
 3465 00dd 05        		.byte	5
 3466               	.global	data
 3469               	data:
 3470 00de AB        		.byte	-85
 3471 00df CD        		.byte	-51
 3472 00e0 EF        		.byte	-17
 3473 00e1 78        		.byte	120
 3474               	.global	data_bytes
 3477               	data_bytes:
 3478 00e2 04        		.byte	4
 3479               		.comm TXBUFFER,64,1
 3480               		.comm RXBUFFER,64,1
 3481               		.comm curr_buffer_index,2,1
 3482               		.comm curr_byte,2,1
 3483               		.comm no_bytes_tosend,2,1
 3484               		.comm no_databytes_toread,2,1
 3485               		.comm rxcount,2,1
 3486               		.comm lastBit,2,1
 3487               		.comm isFlag,2,1
 3488               		.comm ONEScount,2,1
 3489               		.comm array1,30,1
 3490               		.comm crc,2,1
 3491               		.comm crc_high,1,1
 3492               		.comm crc_low,1,1
 3693               	.Letext0:
DEFINED SYMBOLS
                            *ABS*:0000000000000000 main.c
     /tmp/ccubduZt.s:2      *ABS*:000000000000003f __SREG__
     /tmp/ccubduZt.s:3      *ABS*:000000000000003e __SP_H__
     /tmp/ccubduZt.s:4      *ABS*:000000000000003d __SP_L__
     /tmp/ccubduZt.s:5      *ABS*:0000000000000034 __CCP__
     /tmp/ccubduZt.s:6      *ABS*:0000000000000000 __tmp_reg__
     /tmp/ccubduZt.s:7      *ABS*:0000000000000001 __zero_reg__
     /tmp/ccubduZt.s:20     .text:0000000000000000 WriteToCC1020Register
     /tmp/ccubduZt.s:58     .text:000000000000001a ReadFromCC1020Register
     /tmp/ccubduZt.s:101    .text:0000000000000038 ResetCC1020
     /tmp/ccubduZt.s:173    .text:000000000000006a SetupCC1020Allregisters
     /tmp/ccubduZt.s:3375   .data:00000000000000b8 DefaultConfig433
     /tmp/ccubduZt.s:234    .text:000000000000009e WakeUpCC1020ToTX
     /tmp/ccubduZt.s:384    .text:0000000000000108 WakeUpCC1020ToRX
     /tmp/ccubduZt.s:534    .text:0000000000000172 CalibrateCC1020
     /tmp/ccubduZt.s:907    .text:00000000000002b0 SetupCC1020TX
     /tmp/ccubduZt.s:1280   .text:00000000000003e8 SetupCC1020RX
     /tmp/ccubduZt.s:1621   .text:0000000000000502 Transmitpacket
                            *COM*:0000000000000002 no_bytes_tosend
                            *COM*:0000000000000040 TXBUFFER
     /tmp/ccubduZt.s:1715   .text:000000000000056e ReadNumberofBytes
                            *COM*:0000000000000002 curr_buffer_index
                            *COM*:0000000000000002 rxcount
                            *COM*:0000000000000040 RXBUFFER
     /tmp/ccubduZt.s:1790   .text:00000000000005d6 Receivepacket
                            *COM*:0000000000000002 no_databytes_toread
                            *COM*:0000000000000002 curr_byte
     /tmp/ccubduZt.s:2031   .text:000000000000071a ReadRSSIlevelCC1020
     /tmp/ccubduZt.s:2262   .text:0000000000000826 Initialise_SPI
     /tmp/ccubduZt.s:2287   .text:0000000000000836 Initialise_UART
     /tmp/ccubduZt.s:2312   .text:0000000000000848 usart_transmit
     /tmp/ccubduZt.s:2342   .text:000000000000085c update_crc
                            *COM*:0000000000000002 crc
     /tmp/ccubduZt.s:2394   .text:0000000000000896 go
     /tmp/ccubduZt.s:3469   .data:00000000000000de data
     /tmp/ccubduZt.s:3477   .data:00000000000000e2 data_bytes
                            *COM*:0000000000000001 crc_low
                            *COM*:0000000000000001 crc_high
     /tmp/ccubduZt.s:2500   .text:0000000000000912 cal_crc
     /tmp/ccubduZt.s:2516   .text:000000000000091c hex2ascii
     /tmp/ccubduZt.s:2548   .text:0000000000000932 LoadTXBuffer
     /tmp/ccubduZt.s:3431   .bss:0000000000000006 a
     /tmp/ccubduZt.s:3464   .data:00000000000000dd header_bytes
     /tmp/ccubduZt.s:3437   .bss:0000000000000008 n
     /tmp/ccubduZt.s:3455   .data:00000000000000d8 header
     /tmp/ccubduZt.s:3443   .bss:000000000000000a m
     /tmp/ccubduZt.s:3425   .bss:0000000000000004 i
     /tmp/ccubduZt.s:3449   .bss:000000000000000c b
     /tmp/ccubduZt.s:2706   .text:0000000000000a36 SetupCC1020PD
     /tmp/ccubduZt.s:2879   .text:0000000000000af0 main
     /tmp/ccubduZt.s:3413   .bss:0000000000000000 TX_complete
     /tmp/ccubduZt.s:3419   .bss:0000000000000002 RX_complete
                            *COM*:0000000000000002 lastBit
                            *COM*:0000000000000002 isFlag
                            *COM*:0000000000000002 ONEScount
                            *COM*:000000000000001e array1

UNDEFINED SYMBOLS
__do_copy_data
__do_clear_bss
__divmodhi4
sprintf
strcpy
